CCS PCM C Compiler, Version 5.051, 5967               28-Dec-19 14:33

               Filename:   C:\Users\NGUYEN DUY LINH\Desktop\NOKIA5110\main.lst

               ROM used:   3487 words (43%)
                           Largest free fragment is 2048
               RAM used:   97 (26%) at main() level
                           116 (32%) worst case
               Stack used: 9 locations (4 in main + 5 for interrupts)
               Stack size: 8

*
0000:  MOVLW  08
0001:  MOVWF  0A
0002:  GOTO   000
0003:  NOP
0004:  MOVWF  7F
0005:  SWAPF  03,W
0006:  CLRF   03
0007:  MOVWF  21
0008:  MOVF   0A,W
0009:  MOVWF  20
000A:  CLRF   0A
000B:  MOVF   04,W
000C:  MOVWF  22
000D:  MOVF   77,W
000E:  MOVWF  23
000F:  MOVF   78,W
0010:  MOVWF  24
0011:  MOVF   79,W
0012:  MOVWF  25
0013:  MOVF   7A,W
0014:  MOVWF  26
0015:  MOVF   7B,W
0016:  MOVWF  27
0017:  BSF    03.6
0018:  MOVF   0D,W
0019:  BCF    03.6
001A:  MOVWF  28
001B:  BSF    03.6
001C:  MOVF   0F,W
001D:  BCF    03.6
001E:  MOVWF  29
001F:  BSF    03.6
0020:  MOVF   0C,W
0021:  BCF    03.6
0022:  MOVWF  2A
0023:  BSF    03.6
0024:  MOVF   0E,W
0025:  BCF    03.6
0026:  MOVWF  2B
0027:  BCF    03.7
0028:  BCF    03.5
0029:  BTFSS  0B.4
002A:  GOTO   02D
002B:  BTFSC  0B.1
002C:  GOTO   056
002D:  MOVLW  8C
002E:  MOVWF  04
002F:  BTFSS  00.5
0030:  GOTO   033
0031:  BTFSC  0C.5
0032:  GOTO   059
0033:  MOVF   22,W
0034:  MOVWF  04
0035:  MOVF   23,W
0036:  MOVWF  77
0037:  MOVF   24,W
0038:  MOVWF  78
0039:  MOVF   25,W
003A:  MOVWF  79
003B:  MOVF   26,W
003C:  MOVWF  7A
003D:  MOVF   27,W
003E:  MOVWF  7B
003F:  MOVF   28,W
0040:  BSF    03.6
0041:  MOVWF  0D
0042:  BCF    03.6
0043:  MOVF   29,W
0044:  BSF    03.6
0045:  MOVWF  0F
0046:  BCF    03.6
0047:  MOVF   2A,W
0048:  BSF    03.6
0049:  MOVWF  0C
004A:  BCF    03.6
004B:  MOVF   2B,W
004C:  BSF    03.6
004D:  MOVWF  0E
004E:  BCF    03.6
004F:  MOVF   20,W
0050:  MOVWF  0A
0051:  SWAPF  21,W
0052:  MOVWF  03
0053:  SWAPF  7F,F
0054:  SWAPF  7F,W
0055:  RETFIE
0056:  BCF    0A.3
0057:  BCF    0A.4
0058:  GOTO   419
0059:  BCF    0A.3
005A:  BCF    0A.4
005B:  GOTO   38A
.................... #include <16F887.h> 
.................... //////////// Standard Header file for the PIC16F887 device //////////////// 
.................... /////////////////////////////////////////////////////////////////////////// 
.................... ////        (C) Copyright 1996, 2014 Custom Computer Services          //// 
.................... //// This source code may only be used by licensed users of the CCS C  //// 
.................... //// compiler.  This source code may only be distributed to other      //// 
.................... //// licensed users of the CCS C compiler.  No other use, reproduction //// 
.................... //// or distribution is permitted without written permission.          //// 
.................... //// Derivative programs created using this software in object code    //// 
.................... //// form are not restricted in any way.                               //// 
.................... /////////////////////////////////////////////////////////////////////////// 
.................... #device PIC16F887 
005C:  BCF    0A.0
005D:  BCF    0A.1
005E:  BCF    0A.2
005F:  ADDLW  63
0060:  BTFSC  03.0
0061:  INCF   0A,F
0062:  MOVWF  02
0063:  RETLW  00
0064:  RETLW  00
0065:  RETLW  00
0066:  RETLW  00
0067:  RETLW  00
0068:  RETLW  00
0069:  RETLW  00
006A:  RETLW  5F
006B:  RETLW  00
006C:  RETLW  00
006D:  RETLW  00
006E:  RETLW  07
006F:  RETLW  00
0070:  RETLW  07
0071:  RETLW  00
0072:  RETLW  14
0073:  RETLW  7F
0074:  RETLW  14
0075:  RETLW  7F
0076:  RETLW  14
0077:  RETLW  24
0078:  RETLW  2A
0079:  RETLW  7F
007A:  RETLW  2A
007B:  RETLW  12
007C:  RETLW  23
007D:  RETLW  13
007E:  RETLW  08
007F:  RETLW  64
0080:  RETLW  62
0081:  RETLW  36
0082:  RETLW  49
0083:  RETLW  55
0084:  RETLW  22
0085:  RETLW  50
0086:  RETLW  00
0087:  RETLW  05
0088:  RETLW  03
0089:  RETLW  00
008A:  RETLW  00
008B:  RETLW  00
008C:  RETLW  1C
008D:  RETLW  22
008E:  RETLW  41
008F:  RETLW  00
0090:  RETLW  00
0091:  RETLW  41
0092:  RETLW  22
0093:  RETLW  1C
0094:  RETLW  00
0095:  RETLW  14
0096:  RETLW  08
0097:  RETLW  3E
0098:  RETLW  08
0099:  RETLW  14
009A:  RETLW  08
009B:  RETLW  08
009C:  RETLW  3E
009D:  RETLW  08
009E:  RETLW  08
009F:  RETLW  00
00A0:  RETLW  50
00A1:  RETLW  30
00A2:  RETLW  00
00A3:  RETLW  00
00A4:  RETLW  08
00A5:  RETLW  08
00A6:  RETLW  08
00A7:  RETLW  08
00A8:  RETLW  08
00A9:  RETLW  00
00AA:  RETLW  60
00AB:  RETLW  60
00AC:  RETLW  00
00AD:  RETLW  00
00AE:  RETLW  20
00AF:  RETLW  10
00B0:  RETLW  08
00B1:  RETLW  04
00B2:  RETLW  02
00B3:  RETLW  3E
00B4:  RETLW  51
00B5:  RETLW  49
00B6:  RETLW  45
00B7:  RETLW  3E
00B8:  RETLW  00
00B9:  RETLW  42
00BA:  RETLW  7F
00BB:  RETLW  40
00BC:  RETLW  00
00BD:  RETLW  42
00BE:  RETLW  61
00BF:  RETLW  51
00C0:  RETLW  49
00C1:  RETLW  46
00C2:  RETLW  21
00C3:  RETLW  41
00C4:  RETLW  45
00C5:  RETLW  4B
00C6:  RETLW  31
00C7:  RETLW  18
00C8:  RETLW  14
00C9:  RETLW  12
00CA:  RETLW  7F
00CB:  RETLW  10
00CC:  RETLW  27
00CD:  RETLW  45
00CE:  RETLW  45
00CF:  RETLW  45
00D0:  RETLW  39
00D1:  RETLW  3C
00D2:  RETLW  4A
00D3:  RETLW  49
00D4:  RETLW  49
00D5:  RETLW  30
00D6:  RETLW  01
00D7:  RETLW  71
00D8:  RETLW  09
00D9:  RETLW  05
00DA:  RETLW  03
00DB:  RETLW  36
00DC:  RETLW  49
00DD:  RETLW  49
00DE:  RETLW  49
00DF:  RETLW  36
00E0:  RETLW  06
00E1:  RETLW  49
00E2:  RETLW  49
00E3:  RETLW  29
00E4:  RETLW  1E
00E5:  RETLW  00
00E6:  RETLW  36
00E7:  RETLW  36
00E8:  RETLW  00
00E9:  RETLW  00
00EA:  RETLW  00
00EB:  RETLW  56
00EC:  RETLW  36
00ED:  RETLW  00
00EE:  RETLW  00
00EF:  RETLW  08
00F0:  RETLW  14
00F1:  RETLW  22
00F2:  RETLW  41
00F3:  RETLW  00
00F4:  RETLW  14
00F5:  RETLW  14
00F6:  RETLW  14
00F7:  RETLW  14
00F8:  RETLW  14
00F9:  RETLW  00
00FA:  RETLW  41
00FB:  RETLW  22
00FC:  RETLW  14
00FD:  RETLW  08
00FE:  RETLW  02
00FF:  RETLW  01
0100:  RETLW  51
0101:  RETLW  09
0102:  RETLW  06
0103:  RETLW  32
0104:  RETLW  49
0105:  RETLW  79
0106:  RETLW  41
0107:  RETLW  3E
0108:  RETLW  7E
0109:  RETLW  11
010A:  RETLW  11
010B:  RETLW  11
010C:  RETLW  7E
010D:  RETLW  7F
010E:  RETLW  49
010F:  RETLW  49
0110:  RETLW  49
0111:  RETLW  36
0112:  RETLW  3E
0113:  RETLW  41
0114:  RETLW  41
0115:  RETLW  41
0116:  RETLW  22
0117:  RETLW  7F
0118:  RETLW  41
0119:  RETLW  41
011A:  RETLW  22
011B:  RETLW  1C
011C:  RETLW  7F
011D:  RETLW  49
011E:  RETLW  49
011F:  RETLW  49
0120:  RETLW  41
0121:  RETLW  7F
0122:  RETLW  09
0123:  RETLW  09
0124:  RETLW  09
0125:  RETLW  01
0126:  RETLW  3E
0127:  RETLW  41
0128:  RETLW  49
0129:  RETLW  49
012A:  RETLW  7A
012B:  RETLW  7F
012C:  RETLW  08
012D:  RETLW  08
012E:  RETLW  08
012F:  RETLW  7F
0130:  RETLW  00
0131:  RETLW  41
0132:  RETLW  7F
0133:  RETLW  41
0134:  RETLW  00
0135:  RETLW  20
0136:  RETLW  40
0137:  RETLW  41
0138:  RETLW  3F
0139:  RETLW  01
013A:  RETLW  7F
013B:  RETLW  08
013C:  RETLW  14
013D:  RETLW  22
013E:  RETLW  41
013F:  RETLW  7F
0140:  RETLW  40
0141:  RETLW  40
0142:  RETLW  40
0143:  RETLW  40
0144:  RETLW  7F
0145:  RETLW  02
0146:  RETLW  0C
0147:  RETLW  02
0148:  RETLW  7F
0149:  RETLW  7F
014A:  RETLW  04
014B:  RETLW  08
014C:  RETLW  10
014D:  RETLW  7F
014E:  RETLW  3E
014F:  RETLW  41
0150:  RETLW  41
0151:  RETLW  41
0152:  RETLW  3E
0153:  BSF    0A.0
0154:  BCF    0A.1
0155:  BCF    0A.2
0156:  ADDLW  5A
0157:  BTFSC  03.0
0158:  INCF   0A,F
0159:  MOVWF  02
015A:  RETLW  7F
015B:  RETLW  09
015C:  RETLW  09
015D:  RETLW  09
015E:  RETLW  06
015F:  RETLW  3E
0160:  RETLW  41
0161:  RETLW  51
0162:  RETLW  21
0163:  RETLW  5E
0164:  RETLW  7F
0165:  RETLW  09
0166:  RETLW  19
0167:  RETLW  29
0168:  RETLW  46
0169:  RETLW  46
016A:  RETLW  49
016B:  RETLW  49
016C:  RETLW  49
016D:  RETLW  31
016E:  RETLW  01
016F:  RETLW  01
0170:  RETLW  7F
0171:  RETLW  01
0172:  RETLW  01
0173:  RETLW  3F
0174:  RETLW  40
0175:  RETLW  40
0176:  RETLW  40
0177:  RETLW  3F
0178:  RETLW  1F
0179:  RETLW  20
017A:  RETLW  40
017B:  RETLW  20
017C:  RETLW  1F
017D:  RETLW  3F
017E:  RETLW  40
017F:  RETLW  38
0180:  RETLW  40
0181:  RETLW  3F
0182:  RETLW  63
0183:  RETLW  14
0184:  RETLW  08
0185:  RETLW  14
0186:  RETLW  63
0187:  RETLW  07
0188:  RETLW  08
0189:  RETLW  70
018A:  RETLW  08
018B:  RETLW  07
018C:  RETLW  61
018D:  RETLW  51
018E:  RETLW  49
018F:  RETLW  45
0190:  RETLW  43
0191:  RETLW  00
0192:  RETLW  7F
0193:  RETLW  41
0194:  RETLW  41
0195:  RETLW  00
0196:  RETLW  02
0197:  RETLW  04
0198:  RETLW  08
0199:  RETLW  10
019A:  RETLW  20
019B:  RETLW  00
019C:  RETLW  41
019D:  RETLW  41
019E:  RETLW  7F
019F:  RETLW  00
01A0:  RETLW  04
01A1:  RETLW  02
01A2:  RETLW  01
01A3:  RETLW  02
01A4:  RETLW  04
01A5:  RETLW  40
01A6:  RETLW  40
01A7:  RETLW  40
01A8:  RETLW  40
01A9:  RETLW  40
01AA:  RETLW  00
01AB:  RETLW  01
01AC:  RETLW  02
01AD:  RETLW  04
01AE:  RETLW  00
01AF:  RETLW  20
01B0:  RETLW  54
01B1:  RETLW  54
01B2:  RETLW  54
01B3:  RETLW  78
01B4:  RETLW  7F
01B5:  RETLW  48
01B6:  RETLW  44
01B7:  RETLW  44
01B8:  RETLW  38
01B9:  RETLW  38
01BA:  RETLW  44
01BB:  RETLW  44
01BC:  RETLW  44
01BD:  RETLW  20
01BE:  RETLW  38
01BF:  RETLW  44
01C0:  RETLW  44
01C1:  RETLW  48
01C2:  RETLW  7F
01C3:  RETLW  38
01C4:  RETLW  54
01C5:  RETLW  54
01C6:  RETLW  54
01C7:  RETLW  18
01C8:  RETLW  08
01C9:  RETLW  7E
01CA:  RETLW  09
01CB:  RETLW  01
01CC:  RETLW  02
01CD:  RETLW  0C
01CE:  RETLW  52
01CF:  RETLW  52
01D0:  RETLW  52
01D1:  RETLW  3E
01D2:  RETLW  7F
01D3:  RETLW  08
01D4:  RETLW  04
01D5:  RETLW  04
01D6:  RETLW  78
01D7:  RETLW  00
01D8:  RETLW  44
01D9:  RETLW  7D
01DA:  RETLW  40
01DB:  RETLW  00
01DC:  RETLW  20
01DD:  RETLW  40
01DE:  RETLW  44
01DF:  RETLW  3D
01E0:  RETLW  00
01E1:  RETLW  7F
01E2:  RETLW  10
01E3:  RETLW  28
01E4:  RETLW  44
01E5:  RETLW  00
01E6:  RETLW  00
01E7:  RETLW  41
01E8:  RETLW  7F
01E9:  RETLW  40
01EA:  RETLW  00
01EB:  RETLW  7C
01EC:  RETLW  04
01ED:  RETLW  18
01EE:  RETLW  04
01EF:  RETLW  78
01F0:  RETLW  7C
01F1:  RETLW  08
01F2:  RETLW  04
01F3:  RETLW  04
01F4:  RETLW  78
01F5:  RETLW  38
01F6:  RETLW  44
01F7:  RETLW  44
01F8:  RETLW  44
01F9:  RETLW  38
01FA:  RETLW  7C
01FB:  RETLW  14
01FC:  RETLW  14
01FD:  RETLW  14
01FE:  RETLW  08
01FF:  RETLW  08
0200:  RETLW  14
0201:  RETLW  14
0202:  RETLW  18
0203:  RETLW  7C
0204:  RETLW  7C
0205:  RETLW  08
0206:  RETLW  04
0207:  RETLW  04
0208:  RETLW  08
0209:  RETLW  48
020A:  RETLW  54
020B:  RETLW  54
020C:  RETLW  54
020D:  RETLW  20
020E:  RETLW  04
020F:  RETLW  3F
0210:  RETLW  44
0211:  RETLW  40
0212:  RETLW  20
0213:  RETLW  3C
0214:  RETLW  40
0215:  RETLW  40
0216:  RETLW  20
0217:  RETLW  7C
0218:  RETLW  1C
0219:  RETLW  20
021A:  RETLW  40
021B:  RETLW  20
021C:  RETLW  1C
021D:  RETLW  3C
021E:  RETLW  40
021F:  RETLW  30
0220:  RETLW  40
0221:  RETLW  3C
0222:  RETLW  44
0223:  RETLW  28
0224:  RETLW  10
0225:  RETLW  28
0226:  RETLW  44
0227:  RETLW  0C
0228:  RETLW  50
0229:  RETLW  50
022A:  RETLW  50
022B:  RETLW  3C
022C:  RETLW  44
022D:  RETLW  64
022E:  RETLW  54
022F:  RETLW  4C
0230:  RETLW  44
0231:  RETLW  00
0232:  RETLW  08
0233:  RETLW  36
0234:  RETLW  41
0235:  RETLW  00
0236:  RETLW  00
0237:  RETLW  00
0238:  RETLW  7F
0239:  RETLW  00
023A:  RETLW  00
023B:  RETLW  00
023C:  RETLW  41
023D:  RETLW  36
023E:  RETLW  08
023F:  RETLW  00
0240:  RETLW  10
0241:  RETLW  08
0242:  RETLW  08
0243:  RETLW  10
0244:  RETLW  08
0245:  RETLW  78
0246:  RETLW  46
0247:  RETLW  41
0248:  RETLW  46
0249:  RETLW  78
024A:  MOVWF  7B
024B:  MOVLW  02
024C:  ADDWF  7A,W
024D:  MOVWF  0A
024E:  MOVF   7B,W
024F:  ADDLW  53
0250:  BTFSC  03.0
0251:  INCF   0A,F
0252:  MOVWF  02
0253:  RETLW  F0
0254:  RETLW  FC
0255:  RETLW  0E
0256:  RETLW  03
0257:  RETLW  83
0258:  RETLW  C3
0259:  RETLW  C3
025A:  RETLW  67
025B:  RETLW  FE
025C:  RETLW  F8
025D:  RETLW  0F
025E:  RETLW  7F
025F:  RETLW  76
0260:  RETLW  C3
0261:  RETLW  C3
0262:  RETLW  C1
0263:  RETLW  C0
0264:  RETLW  60
0265:  RETLW  3F
0266:  RETLW  1F
0267:  RETLW  0C
0268:  RETLW  06
0269:  RETLW  06
026A:  RETLW  03
026B:  RETLW  FF
026C:  RETLW  FF
026D:  RETLW  FF
026E:  RETLW  00
026F:  RETLW  00
0270:  RETLW  00
0271:  RETLW  C0
0272:  RETLW  C0
0273:  RETLW  C0
0274:  RETLW  C0
0275:  RETLW  FF
0276:  RETLW  FF
0277:  RETLW  FF
0278:  RETLW  C0
0279:  RETLW  C0
027A:  RETLW  C0
027B:  RETLW  06
027C:  RETLW  06
027D:  RETLW  03
027E:  RETLW  03
027F:  RETLW  03
0280:  RETLW  03
0281:  RETLW  C7
0282:  RETLW  FE
0283:  RETLW  7C
0284:  RETLW  00
0285:  RETLW  E0
0286:  RETLW  F0
0287:  RETLW  F8
0288:  RETLW  DC
0289:  RETLW  CE
028A:  RETLW  C7
028B:  RETLW  C3
028C:  RETLW  C1
028D:  RETLW  C0
028E:  RETLW  C0
028F:  RETLW  03
0290:  RETLW  03
0291:  RETLW  83
0292:  RETLW  83
0293:  RETLW  83
0294:  RETLW  83
0295:  RETLW  C3
0296:  RETLW  FF
0297:  RETLW  7E
0298:  RETLW  38
0299:  RETLW  C0
029A:  RETLW  C0
029B:  RETLW  C1
029C:  RETLW  C1
029D:  RETLW  C1
029E:  RETLW  C1
029F:  RETLW  C1
02A0:  RETLW  E3
02A1:  RETLW  7F
02A2:  RETLW  3E
02A3:  RETLW  00
02A4:  RETLW  80
02A5:  RETLW  E0
02A6:  RETLW  70
02A7:  RETLW  3C
02A8:  RETLW  1E
02A9:  RETLW  07
02AA:  RETLW  FF
02AB:  RETLW  FF
02AC:  RETLW  00
02AD:  RETLW  0F
02AE:  RETLW  0F
02AF:  RETLW  0D
02B0:  RETLW  0C
02B1:  RETLW  0C
02B2:  RETLW  0C
02B3:  RETLW  0C
02B4:  RETLW  FF
02B5:  RETLW  FF
02B6:  RETLW  0C
02B7:  RETLW  FF
02B8:  RETLW  FF
02B9:  RETLW  C3
02BA:  RETLW  C3
02BB:  RETLW  C3
02BC:  RETLW  C3
02BD:  RETLW  C3
02BE:  RETLW  83
02BF:  RETLW  03
02C0:  RETLW  03
02C1:  RETLW  C0
02C2:  RETLW  C0
02C3:  RETLW  C0
02C4:  RETLW  C0
02C5:  RETLW  C0
02C6:  RETLW  E0
02C7:  RETLW  61
02C8:  RETLW  7F
02C9:  RETLW  3F
02CA:  RETLW  00
02CB:  RETLW  FC
02CC:  RETLW  FE
02CD:  RETLW  CF
02CE:  RETLW  C7
02CF:  RETLW  C3
02D0:  RETLW  C3
02D1:  RETLW  C3
02D2:  RETLW  C3
02D3:  RETLW  83
02D4:  RETLW  00
02D5:  RETLW  3F
02D6:  RETLW  7F
02D7:  RETLW  E1
02D8:  RETLW  C0
02D9:  RETLW  C0
02DA:  RETLW  C0
02DB:  RETLW  C0
02DC:  RETLW  E1
02DD:  RETLW  7F
02DE:  RETLW  3F
02DF:  RETLW  03
02E0:  RETLW  03
02E1:  RETLW  03
02E2:  RETLW  03
02E3:  RETLW  03
02E4:  RETLW  83
02E5:  RETLW  E3
02E6:  RETLW  FB
02E7:  RETLW  3F
02E8:  RETLW  0F
02E9:  RETLW  00
02EA:  RETLW  C0
02EB:  RETLW  F0
02EC:  RETLW  78
02ED:  RETLW  3E
02EE:  RETLW  0F
02EF:  RETLW  03
02F0:  RETLW  00
02F1:  RETLW  00
02F2:  RETLW  00
02F3:  RETLW  3C
02F4:  RETLW  7E
02F5:  RETLW  E7
02F6:  RETLW  C3
02F7:  RETLW  C3
02F8:  RETLW  C3
02F9:  RETLW  C3
02FA:  RETLW  E7
02FB:  RETLW  7E
02FC:  RETLW  3C
02FD:  RETLW  3E
02FE:  RETLW  7F
02FF:  RETLW  E3
0300:  RETLW  C1
0301:  RETLW  C1
0302:  RETLW  C1
0303:  RETLW  C1
0304:  RETLW  E3
0305:  RETLW  7F
0306:  RETLW  3E
0307:  RETLW  FC
0308:  RETLW  FE
0309:  RETLW  87
030A:  RETLW  03
030B:  RETLW  03
030C:  RETLW  03
030D:  RETLW  03
030E:  RETLW  87
030F:  RETLW  FE
0310:  RETLW  FC
0311:  RETLW  00
0312:  RETLW  C1
0313:  RETLW  C3
0314:  RETLW  C3
0315:  RETLW  C3
0316:  RETLW  C3
0317:  RETLW  E3
0318:  RETLW  73
0319:  RETLW  3F
031A:  RETLW  1F
031B:  RETLW  00
031C:  RETLW  00
031D:  RETLW  00
031E:  RETLW  00
031F:  RETLW  00
0320:  RETLW  00
0321:  RETLW  00
0322:  RETLW  00
0323:  RETLW  00
0324:  RETLW  00
0325:  RETLW  00
0326:  RETLW  00
0327:  RETLW  00
0328:  RETLW  E0
0329:  RETLW  F0
032A:  RETLW  F0
032B:  RETLW  E0
032C:  RETLW  00
032D:  RETLW  00
032E:  RETLW  00
032F:  RETLW  00
0330:  RETLW  00
0331:  RETLW  00
0332:  RETLW  30
0333:  RETLW  70
0334:  RETLW  70
0335:  RETLW  70
0336:  RETLW  00
0337:  RETLW  00
0338:  RETLW  00
0339:  RETLW  00
033A:  RETLW  00
033B:  RETLW  00
033C:  RETLW  60
033D:  RETLW  E0
033E:  RETLW  E0
033F:  RETLW  E0
0340:  RETLW  00
0341:  RETLW  00
0342:  RETLW  00
0343:  RETLW  00
0344:  RETLW  00
0345:  RETLW  00
0346:  RETLW  00
0347:  RETLW  00
0348:  RETLW  00
0349:  RETLW  00
034A:  RETLW  00
034B:  RETLW  00
034C:  RETLW  00
034D:  RETLW  00
034E:  RETLW  00
034F:  RETLW  00
0350:  RETLW  00
0351:  RETLW  00
0352:  RETLW  00
0353:  RETLW  00
0354:  RETLW  00
0355:  RETLW  00
0356:  RETLW  00
0357:  DATA 43,24
0358:  DATA 55,10
0359:  DATA 4E,24
035A:  DATA 41,2A
035B:  DATA 00,00
035C:  DATA 54,24
035D:  DATA 55,10
035E:  DATA C8,20
035F:  DATA 49,00
0360:  DATA 54,24
0361:  DATA 55,10
0362:  DATA C2,20
0363:  DATA 00,01
0364:  DATA 54,24
0365:  DATA 55,10
0366:  DATA D4,2A
0367:  DATA 00,01
0368:  DATA 54,24
0369:  DATA 55,10
036A:  DATA CE,20
036B:  DATA 4D,00
036C:  DATA 54,24
036D:  DATA 55,10
036E:  DATA D3,20
036F:  DATA 55,00
0370:  DATA 54,24
0371:  DATA 55,10
0372:  DATA C2,20
0373:  DATA 59,00
0374:  DATA D7,22
0375:  DATA CC,21
0376:  DATA CF,26
0377:  DATA C5,10
0378:  DATA 00,01
0379:  DATA D3,30
037A:  DATA 6E,10
037B:  DATA 70,34
037C:  DATA E1,36
037D:  DATA A0,31
037E:  DATA F5,30
037F:  DATA 00,01
0380:  DATA 4E,24
0381:  DATA CF,26
0382:  DATA A0,1B
0383:  DATA 00,01
0384:  DATA C3,37
0385:  DATA 6E,37
0386:  DATA E5,31
0387:  DATA F4,34
0388:  DATA EE,33
0389:  DATA 20,00
*
044A:  DATA 43,24
044B:  DATA 55,10
044C:  DATA 4E,24
044D:  DATA 41,2A
044E:  DATA 00,01
044F:  DATA 54,24
0450:  DATA 55,10
0451:  DATA C8,20
0452:  DATA 49,00
0453:  DATA 54,24
0454:  DATA 55,10
0455:  DATA C2,20
0456:  DATA 00,01
0457:  DATA 54,24
0458:  DATA 55,10
0459:  DATA D4,2A
045A:  DATA 00,01
045B:  DATA 54,24
045C:  DATA 55,10
045D:  DATA CE,20
045E:  DATA 4D,00
045F:  DATA 54,24
0460:  DATA 55,10
0461:  DATA D3,20
0462:  DATA 55,00
0463:  DATA 54,24
0464:  DATA 55,10
0465:  DATA C2,20
0466:  DATA 59,00
0467:  DATA 20,00
0468:  DATA CC,37
0469:  DATA 61,32
046A:  DATA 69,37
046B:  DATA 67,17
046C:  DATA 2E,17
046D:  DATA 00,01
046E:  DATA D4,32
046F:  DATA 6D,38
0470:  DATA 2E,1D
0471:  DATA 20,00
0472:  DATA 20,00
0473:  DATA 43,00
0474:  DATA C8,3A
0475:  DATA 6D,17
0476:  DATA 3A,10
0477:  DATA 00,01
0478:  DATA A0,12
0479:  DATA 00,01
047A:  DATA D7,32
047B:  DATA 61,3A
047C:  DATA E8,32
047D:  DATA 72,10
047E:  DATA F4,37
047F:  DATA E4,30
0480:  DATA 79,1D
0481:  DATA 00,01
0482:  DATA 20,00
0483:  DATA 41,39
0484:  DATA EC,30
0485:  DATA 6D,10
0486:  DATA 61,3A
0487:  DATA 3A,00
0488:  DATA 41,39
0489:  DATA EC,30
048A:  DATA 6D,10
048B:  DATA 61,3A
048C:  DATA 3A,00
*
04A1:  CLRF   77
04A2:  CLRF   78
04A3:  BSF    03.5
04A4:  MOVF   29,W
04A5:  BCF    03.0
04A6:  BTFSC  2A.0
04A7:  ADDWF  77,F
04A8:  RRF    77,F
04A9:  RRF    78,F
04AA:  BTFSC  2A.1
04AB:  ADDWF  77,F
04AC:  RRF    77,F
04AD:  RRF    78,F
04AE:  BTFSC  2A.2
04AF:  ADDWF  77,F
04B0:  RRF    77,F
04B1:  RRF    78,F
04B2:  BTFSC  2A.3
04B3:  ADDWF  77,F
04B4:  RRF    77,F
04B5:  RRF    78,F
04B6:  BTFSC  2A.4
04B7:  ADDWF  77,F
04B8:  RRF    77,F
04B9:  RRF    78,F
04BA:  BTFSC  2A.5
04BB:  ADDWF  77,F
04BC:  RRF    77,F
04BD:  RRF    78,F
04BE:  BTFSC  2A.6
04BF:  ADDWF  77,F
04C0:  RRF    77,F
04C1:  RRF    78,F
04C2:  BTFSC  2A.7
04C3:  ADDWF  77,F
04C4:  RRF    77,F
04C5:  RRF    78,F
04C6:  BCF    03.5
04C7:  RETURN
*
0519:  MOVF   0B,W
051A:  BSF    03.5
051B:  MOVWF  20
051C:  BCF    03.5
051D:  BCF    0B.7
051E:  BSF    03.5
051F:  BSF    03.6
0520:  BSF    0C.7
0521:  BSF    0C.0
0522:  NOP
0523:  NOP
0524:  BCF    03.6
0525:  BTFSS  20.7
0526:  GOTO   52A
0527:  BCF    03.5
0528:  BSF    0B.7
0529:  BSF    03.5
052A:  BCF    03.5
052B:  BSF    03.6
052C:  MOVF   0C,W
052D:  ANDLW  7F
052E:  BTFSC  03.2
052F:  GOTO   58B
0530:  BSF    03.5
0531:  BCF    03.6
0532:  MOVWF  20
0533:  BCF    03.5
0534:  BSF    03.6
0535:  MOVF   0D,W
0536:  BSF    03.5
0537:  BCF    03.6
0538:  MOVWF  21
0539:  BCF    03.5
053A:  BSF    03.6
053B:  MOVF   0F,W
053C:  BSF    03.5
053D:  BCF    03.6
053E:  MOVWF  22
053F:  MOVF   20,W
0540:  MOVWF  23
0541:  BCF    03.5
0542:  CALL   4C8
0543:  BSF    03.5
0544:  MOVF   21,W
0545:  BCF    03.5
0546:  BSF    03.6
0547:  MOVWF  0D
0548:  BSF    03.5
0549:  BCF    03.6
054A:  MOVF   22,W
054B:  BCF    03.5
054C:  BSF    03.6
054D:  MOVWF  0F
054E:  BCF    03.6
054F:  MOVF   0B,W
0550:  BSF    03.5
0551:  MOVWF  23
0552:  BCF    03.5
0553:  BCF    0B.7
0554:  BSF    03.5
0555:  BSF    03.6
0556:  BSF    0C.7
0557:  BSF    0C.0
0558:  NOP
0559:  NOP
055A:  BCF    03.6
055B:  BTFSS  23.7
055C:  GOTO   560
055D:  BCF    03.5
055E:  BSF    0B.7
055F:  BSF    03.5
0560:  BCF    03.5
0561:  BSF    03.6
0562:  RLF    0C,W
0563:  RLF    0E,W
0564:  ANDLW  7F
0565:  BTFSC  03.2
0566:  GOTO   58B
0567:  BSF    03.5
0568:  BCF    03.6
0569:  MOVWF  20
056A:  BCF    03.5
056B:  BSF    03.6
056C:  MOVF   0D,W
056D:  BSF    03.5
056E:  BCF    03.6
056F:  MOVWF  21
0570:  BCF    03.5
0571:  BSF    03.6
0572:  MOVF   0F,W
0573:  BSF    03.5
0574:  BCF    03.6
0575:  MOVWF  22
0576:  MOVF   20,W
0577:  MOVWF  23
0578:  BCF    03.5
0579:  CALL   4C8
057A:  BSF    03.5
057B:  MOVF   21,W
057C:  BCF    03.5
057D:  BSF    03.6
057E:  MOVWF  0D
057F:  BSF    03.5
0580:  BCF    03.6
0581:  MOVF   22,W
0582:  BCF    03.5
0583:  BSF    03.6
0584:  MOVWF  0F
0585:  INCF   0D,F
0586:  BTFSC  03.2
0587:  INCF   0F,F
0588:  BCF    03.6
0589:  GOTO   519
058A:  BSF    03.6
058B:  BCF    03.6
058C:  RETURN
*
06FE:  BSF    03.5
06FF:  MOVF   21,W
0700:  CLRF   78
0701:  SUBWF  20,W
0702:  BTFSC  03.0
0703:  GOTO   707
0704:  MOVF   20,W
0705:  MOVWF  77
0706:  GOTO   713
0707:  CLRF   77
0708:  MOVLW  08
0709:  MOVWF  22
070A:  RLF    20,F
070B:  RLF    77,F
070C:  MOVF   21,W
070D:  SUBWF  77,W
070E:  BTFSC  03.0
070F:  MOVWF  77
0710:  RLF    78,F
0711:  DECFSZ 22,F
0712:  GOTO   70A
0713:  BCF    03.5
0714:  RETURN
....................  
.................... #list 
....................  
.................... #device  ADC = 10 *=16 
.................... #FUSES HS NOWDT NOBROWNOUT NOLVP 
.................... #use delay(CRYSTAL=20M) 
*
048D:  MOVLW  A1
048E:  MOVWF  04
048F:  BCF    03.7
0490:  MOVF   00,W
0491:  BTFSC  03.2
0492:  GOTO   4A0
0493:  MOVLW  06
0494:  MOVWF  78
0495:  CLRF   77
0496:  DECFSZ 77,F
0497:  GOTO   496
0498:  DECFSZ 78,F
0499:  GOTO   495
049A:  MOVLW  7B
049B:  MOVWF  77
049C:  DECFSZ 77,F
049D:  GOTO   49C
049E:  DECFSZ 00,F
049F:  GOTO   493
04A0:  RETURN
*
05C7:  MOVLW  03
05C8:  SUBWF  20,F
05C9:  BTFSS  03.0
05CA:  GOTO   5D5
05CB:  MOVLW  A0
05CC:  MOVWF  04
05CD:  BCF    03.7
05CE:  MOVF   00,W
05CF:  BTFSC  03.2
05D0:  GOTO   5D5
05D1:  GOTO   5D3
05D2:  GOTO   5D3
05D3:  DECFSZ 00,F
05D4:  GOTO   5D2
.................... #use rs232(UART1) 
.................... #use spi(SPI1, BAUD = 1000000, MODE = 3, BITS = 8, STREAM = LCD_STREAM) 
*
03BA:  MOVF   13,W
03BB:  BSF    03.5
03BC:  MOVF   33,W
03BD:  BCF    03.5
03BE:  MOVWF  13
03BF:  BSF    03.5
03C0:  RRF    14,W
03C1:  BTFSS  03.0
03C2:  GOTO   3C0
03C3:  BCF    03.5
03C4:  MOVF   13,W
03C5:  MOVWF  78
03C6:  RETURN
....................  
.................... // Define SPI Pins                                                              
.................... #define lcd_sclk  PIN_C3  
.................... #define lcd_sda   PIN_C5              
.................... #define lcd_dc    PIN_D3                      
.................... #define lcd_cs    PIN_A5                                                                             
.................... #define lcd_res   PIN_D2   
.................... #define dht11_pin   PIN_D0  
....................  
.................... // Define orther source files 
.................... #include "5110lib\3310(modified).c"  
.................... char CONST TABLE1 [240] = {  
....................                   0x00,0x00,0x00,0x00,0x00,   // 20 space 
....................                   0x00,0x00,0x5f,0x00,0x00,   // 21 ! 
....................                   0x00,0x07,0x00,0x07,0x00,   // 22 " 
....................                   0x14,0x7f,0x14,0x7f,0x14,   // 23 # 
....................                   0x24,0x2a,0x7f,0x2a,0x12,   // 24 $ 
....................                   0x23,0x13,0x08,0x64,0x62,   // 25 % 
....................                   0x36,0x49,0x55,0x22,0x50,   // 26 & 
....................                   0x00,0x05,0x03,0x00,0x00,   // 27 ' 
....................                   0x00,0x1c,0x22,0x41,0x00,   // 28 ( 
....................                   0x00,0x41,0x22,0x1c,0x00,   // 29 ) 
....................                   0x14,0x08,0x3e,0x08,0x14,   // 2a * 
....................                   0x08,0x08,0x3e,0x08,0x08,   // 2b + 
....................                   0x00,0x50,0x30,0x00,0x00,   // 2c , 
....................                   0x08,0x08,0x08,0x08,0x08,   // 2d - 
....................                   0x00,0x60,0x60,0x00,0x00,   // 2e . 
....................                   0x20,0x10,0x08,0x04,0x02,   // 2f / 
....................                   0x3e,0x51,0x49,0x45,0x3e,   // 30 0 
....................                   0x00,0x42,0x7f,0x40,0x00,   // 31 1 
....................                   0x42,0x61,0x51,0x49,0x46,   // 32 2 
....................                   0x21,0x41,0x45,0x4b,0x31,   // 33 3 
....................                   0x18,0x14,0x12,0x7f,0x10,   // 34 4 
....................                   0x27,0x45,0x45,0x45,0x39,   // 35 5 
....................                   0x3c,0x4a,0x49,0x49,0x30,   // 36 6 
....................                   0x01,0x71,0x09,0x05,0x03,   // 37 7 
....................                   0x36,0x49,0x49,0x49,0x36,   // 38 8 
....................                   0x06,0x49,0x49,0x29,0x1e,   // 39 9 
....................                   0x00,0x36,0x36,0x00,0x00,   // 3a : 
....................                   0x00,0x56,0x36,0x00,0x00,   // 3b ; 
....................                   0x08,0x14,0x22,0x41,0x00,   // 3c < 
....................                   0x14,0x14,0x14,0x14,0x14,   // 3d = 
....................                   0x00,0x41,0x22,0x14,0x08,   // 3e > 
....................                   0x02,0x01,0x51,0x09,0x06,   // 3f ? 
....................                   0x32,0x49,0x79,0x41,0x3e,   // 40 @ 
....................                   0x7e,0x11,0x11,0x11,0x7e,   // 41 A 
....................                   0x7f,0x49,0x49,0x49,0x36,   // 42 B 
....................                   0x3e,0x41,0x41,0x41,0x22,   // 43 C 
....................                   0x7f,0x41,0x41,0x22,0x1c,   // 44 D 
....................                   0x7f,0x49,0x49,0x49,0x41,   // 45 E 
....................                   0x7f,0x09,0x09,0x09,0x01,   // 46 F 
....................                   0x3e,0x41,0x49,0x49,0x7a,   // 47 G 
....................                   0x7f,0x08,0x08,0x08,0x7f,   // 48 H 
....................                   0x00,0x41,0x7f,0x41,0x00,   // 49 I 
....................                   0x20,0x40,0x41,0x3f,0x01,   // 4a J 
....................                   0x7f,0x08,0x14,0x22,0x41,   // 4b K 
....................                   0x7f,0x40,0x40,0x40,0x40,   // 4c L 
....................                   0x7f,0x02,0x0c,0x02,0x7f,   // 4d M 
....................                   0x7f,0x04,0x08,0x10,0x7f,   // 4e N 
....................                   0x3e,0x41,0x41,0x41,0x3e};   // 4f O 
....................  
.................... char CONST TABLE2 [240] = { 
....................                   0x7f,0x09,0x09,0x09,0x06,   // 50 P 
....................                   0x3e,0x41,0x51,0x21,0x5e,   // 51 Q 
....................                   0x7f,0x09,0x19,0x29,0x46,   // 52 R 
....................                   0x46,0x49,0x49,0x49,0x31,   // 53 S 
....................                   0x01,0x01,0x7f,0x01,0x01,   // 54 T 
....................                   0x3f,0x40,0x40,0x40,0x3f,   // 55 U 
....................                   0x1f,0x20,0x40,0x20,0x1f,   // 56 V 
....................                   0x3f,0x40,0x38,0x40,0x3f,   // 57 W 
....................                   0x63,0x14,0x08,0x14,0x63,   // 58 X 
....................                   0x07,0x08,0x70,0x08,0x07,   // 59 Y 
....................                   0x61,0x51,0x49,0x45,0x43,   // 5a Z 
....................                   0x00,0x7f,0x41,0x41,0x00,   // 5b [ 
....................                   0x02,0x04,0x08,0x10,0x20,   // 5c \ 
....................                   0x00,0x41,0x41,0x7f,0x00,   // 5d ñ 
....................                   0x04,0x02,0x01,0x02,0x04,   // 5e ^ 
....................                   0x40,0x40,0x40,0x40,0x40,   // 5f _ 
....................                   0x00,0x01,0x02,0x04,0x00,   // 60 ` 
....................                   0x20,0x54,0x54,0x54,0x78,   // 61 a 
....................                   0x7f,0x48,0x44,0x44,0x38,   // 62 b 
....................                   0x38,0x44,0x44,0x44,0x20,   // 63 c 
....................                   0x38,0x44,0x44,0x48,0x7f,   // 64 d 
....................                   0x38,0x54,0x54,0x54,0x18,   // 65 e 
....................                   0x08,0x7e,0x09,0x01,0x02,   // 66 f 
....................                   0x0c,0x52,0x52,0x52,0x3e,   // 67 g 
....................                   0x7f,0x08,0x04,0x04,0x78,   // 68 h 
....................                   0x00,0x44,0x7d,0x40,0x00,   // 69 i 
....................                   0x20,0x40,0x44,0x3d,0x00,   // 6a j 
....................                   0x7f,0x10,0x28,0x44,0x00,   // 6b k 
....................                   0x00,0x41,0x7f,0x40,0x00,   // 6c l 
....................                   0x7c,0x04,0x18,0x04,0x78,   // 6d m 
....................                   0x7c,0x08,0x04,0x04,0x78,   // 6e n 
....................                   0x38,0x44,0x44,0x44,0x38,   // 6f o 
....................                   0x7c,0x14,0x14,0x14,0x08,   // 70 p 
....................                   0x08,0x14,0x14,0x18,0x7c,   // 71 q 
....................                   0x7c,0x08,0x04,0x04,0x08,   // 72 r 
....................                   0x48,0x54,0x54,0x54,0x20,   // 73 s 
....................                   0x04,0x3f,0x44,0x40,0x20,   // 74 t 
....................                   0x3c,0x40,0x40,0x20,0x7c,   // 75 u 
....................                   0x1c,0x20,0x40,0x20,0x1c,   // 76 v 
....................                   0x3c,0x40,0x30,0x40,0x3c,   // 77 w 
....................                   0x44,0x28,0x10,0x28,0x44,   // 78 x 
....................                   0x0c,0x50,0x50,0x50,0x3c,   // 79 y 
....................                   0x44,0x64,0x54,0x4c,0x44,   // 7a z 
....................                   0x00,0x08,0x36,0x41,0x00,   // 7b { 
....................                   0x00,0x00,0x7f,0x00,0x00,   // 7c | 
....................                   0x00,0x41,0x36,0x08,0x00,   // 7d } 
....................                   0x10,0x08,0x08,0x10,0x08,   // 7e ~ 
....................                   0x78,0x46,0x41,0x46,0x78};   // 7f ¦ 
....................  
.................... const char digits[260] = { 
.................... 0xF0, 0xFC, 0x0E, 0x03, 0x83, 0xC3, 0xC3, 0x67, 0xFE, 0xF8, 0x0F, 0x7F, 0x76, 0xC3, 0xC3, 0xC1, 0xC0, 0x60, 0x3F, 0x1F,  
.................... 0x0C, 0x06, 0x06, 0x03, 0xFF, 0xFF, 0xFF, 0x00, 0x00, 0x00, 0xC0, 0xC0, 0xC0, 0xC0, 0xFF, 0xFF, 0xFF, 0xC0, 0xC0, 0xC0,  
.................... 0x06, 0x06, 0x03, 0x03, 0x03, 0x03, 0xC7, 0xFE, 0x7C, 0x00, 0xE0, 0xF0, 0xF8, 0xDC, 0xCE, 0xC7, 0xC3, 0xC1, 0xC0, 0xC0,  
.................... 0x03, 0x03, 0x83, 0x83, 0x83, 0x83, 0xC3, 0xFF, 0x7E, 0x38, 0xC0, 0xC0, 0xC1, 0xC1, 0xC1, 0xC1, 0xC1, 0xE3, 0x7F, 0x3E,  
.................... 0x00, 0x80, 0xE0, 0x70, 0x3C, 0x1E, 0x07, 0xFF, 0xFF, 0x00, 0x0F, 0x0F, 0x0D, 0x0C, 0x0C, 0x0C, 0x0C, 0xFF, 0xFF, 0x0C,  
.................... 0xFF, 0xFF, 0xC3, 0xC3, 0xC3, 0xC3, 0xC3, 0x83, 0x03, 0x03, 0xC0, 0xC0, 0xC0, 0xC0, 0xC0, 0xE0, 0x61, 0x7F, 0x3F, 0x00,  
.................... 0xFC, 0xFE, 0xCF, 0xC7, 0xC3, 0xC3, 0xC3, 0xC3, 0x83, 0x00, 0x3F, 0x7F, 0xE1, 0xC0, 0xC0, 0xC0, 0xC0, 0xE1, 0x7F, 0x3F,  
.................... 0x03, 0x03, 0x03, 0x03, 0x03, 0x83, 0xE3, 0xFB, 0x3F, 0x0F, 0x00, 0xC0, 0xF0, 0x78, 0x3E, 0x0F, 0x03, 0x00, 0x00, 0x00, 
.................... 0x3C, 0x7E, 0xE7, 0xC3, 0xC3, 0xC3, 0xC3, 0xE7, 0x7E, 0x3C, 0x3E, 0x7F, 0xE3, 0xC1, 0xC1, 0xC1, 0xC1, 0xE3, 0x7F, 0x3E,  
.................... 0xFC, 0xFE, 0x87, 0x03, 0x03, 0x03, 0x03, 0x87, 0xFE, 0xFC, 0x00, 0xC1, 0xC3, 0xC3, 0xC3, 0xC3, 0xE3, 0x73, 0x3F, 0x1F,  
.................... 0x00, 0x00, 0x00, 0x00, 0x00, 0x00, 0x00, 0x00, 0x00, 0x00, 0x00, 0x00, 0x00, 0xE0, 0xF0, 0xF0, 0xE0, 0x00, 0x00, 0x00, //cham 
.................... 0x00, 0x00, 0x00, 0x30, 0x70, 0x70, 0x70, 0x00, 0x00, 0x00, 0x00, 0x00, 0x00, 0x60, 0xE0, 0xE0, 0xE0, 0x00, 0x00, 0x00 //hai cham 
.................... }; 
.................... const unsigned char cloudy[] = {  
....................   0x00, 0x00, 0x00, 0x00, 0x00, 0x00, 0x00, 0x00, 0x00, 0x00, 0x00, 0x00, 0x00, 0x00, 0x00, 0x00, 0x00, 0x00, 0x00, 0x00, 0x00, 0x00, 0x00, 0x00, 0x00, 0x00, 0x00, 0x00, 0x00, 0x00, 0x00, 0x00, 0x00, 0x80, 0xc0, 0xe0, 0xf0, 0x70, 0x38, 0x38, 0x1c, 0x0c, 0x0e, 0x0e, 0x06, 0x07, 0x07, 0x07, 0x07, 0x03, 0x03, 0x07, 0x07, 0x07, 0x07, 0x06, 0x06, 0x0e, 0x0e, 0x1c, 0x1c, 0x38, 0x78, 0x70, 0xe0, 0xc0, 0xc0, 0x00, 0x00, 0x00, 0x00, 0x00, 0x00, 0x00, 0x00, 0x00, 0x00, 0x00, 0x00, 0x00, 0x00, 0x00, 0x00, 0x00,  
....................   0x00, 0x00, 0x00, 0x00, 0x00, 0x00, 0x00, 0x00, 0x00, 0x00, 0x00, 0x00, 0x00, 0x00, 0x00, 0x80, 0xe0, 0xf8, 0xf8, 0x1c, 0x0e, 0x0e, 0x07, 0x07, 0x07, 0x03, 0x03, 0x07, 0x07, 0x07, 0x0e, 0x0e, 0x1e, 0x0f, 0x07, 0x01, 0x00, 0x00, 0x00, 0x00, 0x00, 0x00, 0x00, 0x00, 0x00, 0x00, 0x00, 0x00, 0x00, 0x00, 0x00, 0x00, 0x00, 0x00, 0x00, 0x00, 0x00, 0x00, 0x00, 0x00, 0x00, 0x00, 0x00, 0x00, 0x00, 0x03, 0x07, 0x1f, 0xfe, 0xf8, 0xe0, 0x00, 0x00, 0x00, 0x00, 0x00, 0x00, 0x00, 0x00, 0x00, 0x00, 0x00, 0x00, 0x00,  
....................   0x00, 0x00, 0x80, 0xc0, 0xe0, 0xf0, 0x38, 0x38, 0x1c, 0x0c, 0x0e, 0x0e, 0x07, 0x07, 0x07, 0x07, 0x07, 0x03, 0x00, 0x00, 0x00, 0x00, 0x00, 0x00, 0x00, 0x00, 0x00, 0x00, 0x00, 0x00, 0x00, 0x00, 0x00, 0x00, 0x00, 0x00, 0x00, 0x00, 0x00, 0x00, 0x00, 0x00, 0x00, 0x00, 0x00, 0x00, 0x00, 0x00, 0x00, 0x00, 0x00, 0x00, 0x00, 0x00, 0x00, 0x00, 0x00, 0x00, 0x00, 0x00, 0x00, 0x00, 0x00, 0x00, 0x00, 0x00, 0x00, 0x00, 0x7b, 0xff, 0xff, 0xc4, 0xc0, 0xc0, 0xc0, 0x80, 0x80, 0x00, 0x00, 0x00, 0x00, 0x00, 0x00, 0x00,  
....................   0xf8, 0xff, 0xff, 0x07, 0x01, 0x00, 0x00, 0x00, 0x00, 0x00, 0x00, 0x00, 0x00, 0x00, 0x00, 0x00, 0x00, 0x00, 0x00, 0x00, 0x00, 0x00, 0x00, 0x00, 0x00, 0x00, 0x00, 0x00, 0x00, 0x00, 0x00, 0x00, 0x00, 0x00, 0x00, 0x00, 0x00, 0x00, 0x00, 0x00, 0x00, 0x00, 0x00, 0x00, 0x00, 0x00, 0x00, 0x00, 0x00, 0x00, 0x00, 0x00, 0x00, 0x00, 0x00, 0x00, 0x00, 0x00, 0x00, 0x00, 0x00, 0x00, 0x00, 0x00, 0x00, 0x00, 0x00, 0x00, 0x00, 0x00, 0x00, 0x00, 0x00, 0x01, 0x01, 0x03, 0x07, 0x0f, 0x3e, 0xfc, 0xf0, 0xc0, 0x00, 0x00,  
....................   0x01, 0x1f, 0x3f, 0x7c, 0xf0, 0xc0, 0xc0, 0x80, 0x00, 0x00, 0x00, 0x00, 0x00, 0x00, 0x00, 0x00, 0x00, 0x00, 0x00, 0x00, 0x00, 0x00, 0x00, 0x00, 0x00, 0x00, 0x00, 0x00, 0x00, 0x00, 0x00, 0x00, 0x00, 0x00, 0x00, 0x00, 0x00, 0x00, 0x00, 0x00, 0x00, 0x00, 0x00, 0x00, 0x00, 0x00, 0x00, 0x00, 0x00, 0x00, 0x00, 0x00, 0x00, 0x00, 0x00, 0x00, 0x00, 0x00, 0x00, 0x00, 0x00, 0x00, 0x00, 0x00, 0x00, 0x00, 0x00, 0x00, 0x00, 0x00, 0x00, 0x00, 0x00, 0x00, 0x00, 0x00, 0x80, 0xc0, 0xf0, 0xff, 0x3f, 0x0f, 0x00, 0x00,  
....................   0x00, 0x00, 0x00, 0x00, 0x00, 0x01, 0x03, 0x07, 0x07, 0x0e, 0x0e, 0x0e, 0x0c, 0x1c, 0x1c, 0x1c, 0x1c, 0x1c, 0x1c, 0x1c, 0x1c, 0x1c, 0x1c, 0x1c, 0x1c, 0x1c, 0x1c, 0x1c, 0x1c, 0x1c, 0x1c, 0x1c, 0x1c, 0x1c, 0x1c, 0x1c, 0x1c, 0x1c, 0x1c, 0x1c, 0x1c, 0x1c, 0x1c, 0x1c, 0x1c, 0x1c, 0x1c, 0x1c, 0x1c, 0x1c, 0x1c, 0x1c, 0x1c, 0x1c, 0x1c, 0x1c, 0x1c, 0x1c, 0x1c, 0x1c, 0x1c, 0x1c, 0x1c, 0x1c, 0x1c, 0x1c, 0x1c, 0x1c, 0x1c, 0x1c, 0x1c, 0x1c, 0x0c, 0x0e, 0x0e, 0x07, 0x03, 0x03, 0x01, 0x00, 0x00, 0x00, 0x00, 0x00 
.................... }; 
.................... const unsigned char rainy[]= { 
.................... 0x00, 0x00, 0x00, 0x00, 0x00, 0x00, 0x00, 0x00, 0x00, 0x00, 0x00, 0x00, 0x00, 0x00, 0x00, 0x00, 0x00, 0x00, 0x00, 0x00, 0x00, 0x00, 0x00, 0x80, 0xc0, 0xc0, 0xe0, 0xe0, 0xe0, 0x70, 0x70, 0x70, 0x70, 0x70, 0x70, 0x70, 0x70, 0x70, 0x70, 0x70, 0xe0, 0xe0, 0xe0, 0xc0, 0xc0, 0x80, 0x00, 0x00, 0x00, 0x00, 0x00, 0x00, 0x00, 0x00, 0x00, 0x00, 0x00, 0x00, 0x00, 0x00, 0x00, 0x00, 0x00, 0x00, 0x00, 0x00, 0x00, 0x00, 0x00, 0x00, 0x00, 0x00, 0x00, 0x00, 0x00, 0x00, 0x00, 0x00, 0x00, 0x00, 0x00, 0x00, 0x00,  
....................   0x00, 0x00, 0x00, 0x00, 0x00, 0x00, 0x00, 0x00, 0x00, 0x00, 0x00, 0x00, 0x00, 0x00, 0x00, 0x00, 0x00, 0x00, 0xc0, 0xf8, 0xfc, 0xfe, 0x1f, 0x0f, 0x07, 0x03, 0x01, 0x00, 0x00, 0x00, 0x00, 0x00, 0x00, 0x00, 0x00, 0x00, 0x00, 0x00, 0x00, 0x00, 0x00, 0x00, 0x01, 0x03, 0x03, 0x0f, 0x1f, 0x3e, 0x1c, 0x1c, 0x1c, 0x1c, 0x1c, 0x1c, 0x1c, 0x1c, 0x3c, 0x38, 0x78, 0xf0, 0xf0, 0xe0, 0xc0, 0x00, 0x00, 0x00, 0x00, 0x00, 0x00, 0x00, 0x00, 0x00, 0x00, 0x20, 0x00, 0x00, 0x00, 0x00, 0x00, 0x00, 0x00, 0x08, 0x00,  
....................   0x00, 0x00, 0x00, 0x00, 0x00, 0x00, 0x00, 0x00, 0x00, 0x00, 0x00, 0x00, 0x00, 0xe0, 0xf0, 0xf8, 0x7c, 0x1e, 0x0f, 0x0f, 0x07, 0x07, 0x00, 0x00, 0x00, 0x00, 0x00, 0x00, 0x00, 0x00, 0x00, 0x00, 0x00, 0x00, 0x00, 0x00, 0x00, 0x00, 0x00, 0x04, 0x00, 0x00, 0x00, 0x00, 0x00, 0x00, 0x00, 0x00, 0x00, 0x00, 0x00, 0x00, 0x00, 0x00, 0x00, 0x00, 0x00, 0x00, 0x00, 0x00, 0x07, 0x07, 0x07, 0x07, 0x0f, 0x0e, 0x1e, 0x7c, 0xf8, 0xf0, 0xe0, 0x00, 0x00, 0x00, 0x00, 0x00, 0x00, 0x00, 0x00, 0x00, 0x00, 0x00, 0x00,  
....................   0x00, 0x00, 0x00, 0x00, 0x00, 0x00, 0x00, 0x00, 0x00, 0x00, 0x00, 0x00, 0x03, 0x1f, 0x3f, 0x7f, 0xf8, 0xf0, 0xe0, 0xc0, 0xc0, 0x80, 0x80, 0x80, 0x80, 0x80, 0x80, 0x80, 0x80, 0x80, 0x80, 0x80, 0x80, 0x80, 0x80, 0x80, 0x80, 0x80, 0x80, 0x80, 0x80, 0x80, 0x80, 0x80, 0x80, 0x80, 0x80, 0x80, 0x80, 0x80, 0x80, 0x80, 0x80, 0x80, 0x80, 0x80, 0x80, 0x80, 0x80, 0x80, 0x80, 0x80, 0x80, 0xc0, 0xc0, 0xe0, 0xf0, 0xfc, 0x7f, 0x3f, 0x0f, 0x13, 0x00, 0x00, 0x00, 0x00, 0x00, 0x00, 0x00, 0x00, 0x00, 0x00, 0x00,  
....................   0x00, 0x00, 0x00, 0x00, 0x00, 0x00, 0x00, 0x00, 0x00, 0x00, 0x00, 0x00, 0x00, 0x00, 0x00, 0x00, 0x00, 0x00, 0x01, 0x01, 0x01, 0x03, 0x03, 0x03, 0x03, 0xf3, 0xfb, 0xfb, 0xf3, 0x03, 0x03, 0x03, 0x03, 0x83, 0xc3, 0x83, 0x03, 0x03, 0x03, 0x03, 0xf3, 0xfb, 0xfb, 0xf3, 0x03, 0x03, 0x03, 0x03, 0x83, 0xc3, 0x83, 0x03, 0x03, 0x03, 0x03, 0xf3, 0xfb, 0xfb, 0xf3, 0x03, 0x03, 0x03, 0x03, 0x01, 0x01, 0x01, 0x00, 0x00, 0x00, 0x00, 0x00, 0x00, 0x00, 0x00, 0x00, 0x00, 0x00, 0x00, 0x00, 0x00, 0x00, 0x00, 0x00,  
....................   0x00, 0x00, 0x00, 0x00, 0x00, 0x00, 0x00, 0x00, 0x00, 0x00, 0x00, 0x00, 0x00, 0x00, 0x00, 0x00, 0x00, 0x00, 0x00, 0x00, 0x00, 0x00, 0x00, 0x00, 0x00, 0x01, 0x01, 0x01, 0x01, 0x00, 0x00, 0x00, 0x00, 0x0f, 0x0f, 0x0f, 0x00, 0x00, 0x00, 0x00, 0x01, 0x01, 0x01, 0x01, 0x00, 0x00, 0x00, 0x00, 0x0f, 0x0f, 0x0f, 0x00, 0x00, 0x00, 0x00, 0x01, 0x01, 0x01, 0x00, 0x00, 0x00, 0x00, 0x00, 0x00, 0x00, 0x00, 0x00, 0x00, 0x00, 0x00, 0x00, 0x00, 0x00, 0x00, 0x00, 0x40, 0x00, 0x00, 0x00, 0x00, 0x00, 0x00, 0x00 
.................... }; 
.................... const unsigned char thunder[]={ 
....................  0x00, 0x00, 0x00, 0x00, 0x00, 0x00, 0x00, 0x00, 0x00, 0x00, 0x00, 0x00, 0x00, 0x00, 0x00, 0x00, 0x00, 0x80, 0x80, 0x40, 0x40, 0x40, 0x20, 0x20, 0x20, 0x20, 0x20, 0x20, 0x20, 0x20, 0x20, 0x40, 0x20, 0x20, 0x10, 0x10, 0x08, 0x08, 0x08, 0x08, 0x00, 0x04, 0x04, 0x04, 0x04, 0x04, 0x00, 0x08, 0x08, 0x08, 0x08, 0x10, 0x10, 0x20, 0x60, 0x40, 0x40, 0x40, 0x40, 0x40, 0x40, 0x40, 0xc0, 0x80, 0x80, 0x80, 0x00, 0x00, 0x00, 0x00, 0x00, 0x00, 0x00, 0x00, 0x00, 0x00, 0x00, 0x00, 0x00, 0x00, 0x00, 0x00, 0x00, 0x00,  
....................   0x00, 0x00, 0x00, 0x00, 0x00, 0x00, 0x00, 0x00, 0x00, 0x00, 0x80, 0x40, 0x40, 0x20, 0x3c, 0x2e, 0x21, 0x21, 0x20, 0x20, 0x20, 0x60, 0x30, 0x18, 0x08, 0x08, 0x0c, 0x04, 0x04, 0x04, 0x04, 0x04, 0x08, 0x08, 0x18, 0x10, 0x30, 0x20, 0x20, 0x20, 0x20, 0x20, 0x20, 0x20, 0x20, 0x20, 0x40, 0x40, 0xc0, 0x80, 0x80, 0x80, 0xc0, 0x40, 0x40, 0x40, 0x40, 0x40, 0x40, 0xc0, 0x80, 0x80, 0x00, 0x00, 0x00, 0x00, 0x01, 0x03, 0x02, 0x3c, 0x38, 0x60, 0x40, 0xc0, 0x80, 0x00, 0x00, 0x00, 0x00, 0x00, 0x00, 0x00, 0x00, 0x00,  
....................   0x00, 0x00, 0x00, 0x00, 0x00, 0xe0, 0x30, 0x10, 0x1f, 0x0f, 0x00, 0x00, 0x00, 0x00, 0x00, 0x00, 0x00, 0x00, 0x00, 0x00, 0x00, 0x00, 0x00, 0x00, 0x00, 0x00, 0x00, 0x00, 0x00, 0x00, 0x00, 0x00, 0x00, 0x00, 0x00, 0x00, 0x00, 0x00, 0x00, 0x00, 0x00, 0x00, 0x00, 0x00, 0x00, 0x00, 0x00, 0x20, 0x10, 0x19, 0x1f, 0x10, 0x30, 0xe0, 0xc0, 0x00, 0x00, 0x00, 0x00, 0x00, 0x00, 0x01, 0x01, 0x03, 0x02, 0x02, 0x02, 0x02, 0x02, 0x02, 0x02, 0x02, 0x04, 0x04, 0x0f, 0xfe, 0xf0, 0x00, 0x00, 0x00, 0x00, 0x00, 0x00, 0x00,  
....................   0x00, 0x00, 0x00, 0x00, 0x00, 0x03, 0x06, 0x04, 0x04, 0x08, 0x08, 0x08, 0x08, 0x08, 0x08, 0x08, 0x88, 0xc8, 0x68, 0x38, 0x18, 0x08, 0x08, 0x08, 0x08, 0x48, 0x68, 0x78, 0x58, 0x58, 0xd8, 0xf8, 0x68, 0x48, 0x48, 0x48, 0x88, 0x88, 0x88, 0x88, 0x88, 0x88, 0x88, 0x88, 0x88, 0x88, 0x88, 0x88, 0x88, 0x88, 0x84, 0x84, 0x86, 0x83, 0x81, 0x80, 0x80, 0x80, 0x80, 0x80, 0x80, 0x80, 0x80, 0x80, 0x80, 0x80, 0x80, 0x80, 0x80, 0x80, 0x80, 0x80, 0x80, 0x80, 0x81, 0x40, 0x40, 0x61, 0x23, 0x3e, 0x00, 0x00, 0x00, 0x00,  
....................   0x00, 0x00, 0x00, 0x00, 0x00, 0x00, 0x00, 0x00, 0x00, 0x00, 0x00, 0x00, 0x00, 0x00, 0x01, 0x01, 0x01, 0x01, 0x01, 0x01, 0x81, 0xf1, 0xb9, 0xcf, 0x63, 0x30, 0x18, 0x0c, 0x06, 0x03, 0x01, 0x00, 0x00, 0x00, 0x00, 0x00, 0x00, 0x00, 0x00, 0x00, 0x00, 0x00, 0x00, 0x00, 0x00, 0x00, 0x08, 0x0c, 0x0e, 0x0b, 0x09, 0x08, 0x08, 0x88, 0xf8, 0x38, 0x8a, 0x82, 0x43, 0x32, 0x32, 0x0a, 0x06, 0x06, 0x02, 0x00, 0x00, 0x00, 0x00, 0x00, 0x00, 0x00, 0x00, 0x00, 0x00, 0x00, 0x00, 0x00, 0x00, 0x00, 0x00, 0x00, 0x00, 0x00,  
....................   0x00, 0x00, 0x00, 0x00, 0x00, 0x00, 0x00, 0x00, 0x00, 0x00, 0x00, 0x00, 0x00, 0x00, 0x00, 0x00, 0x00, 0x00, 0x00, 0x07, 0x07, 0x03, 0x01, 0x00, 0x00, 0x00, 0x00, 0x00, 0x00, 0x00, 0x00, 0x00, 0x00, 0x00, 0x00, 0x00, 0x00, 0x00, 0x00, 0x00, 0x00, 0x00, 0x00, 0x00, 0x00, 0x00, 0x00, 0x00, 0x00, 0x00, 0x00, 0x38, 0x1e, 0x0f, 0x06, 0x03, 0x01, 0x00, 0x00, 0x00, 0x00, 0x00, 0x00, 0x00, 0x00, 0x00, 0x00, 0x00, 0x00, 0x00, 0x00, 0x00, 0x00, 0x00, 0x00, 0x00, 0x00, 0x00, 0x00, 0x00, 0x00, 0x00, 0x00, 0x00 
.................... }; 
.................... const unsigned char sunny[]={ 
....................   0x00, 0x00, 0x00, 0x00, 0x00, 0x00, 0x00, 0x00, 0x00, 0x00, 0x00, 0x00, 0x00, 0x00, 0x00, 0x00, 0x00, 0x00, 0x00, 0x00, 0x00, 0x00, 0x00, 0x00, 0x00, 0x00, 0x00, 0x00, 0x00, 0x00, 0x00, 0x00, 0x00, 0x00, 0x00, 0x00, 0x00, 0x00, 0x00, 0x00, 0x00, 0x00, 0x00, 0x00, 0x00, 0x00, 0x00, 0x00, 0x10, 0xc0, 0x00, 0x00, 0x00, 0x00, 0x00, 0x00, 0x00, 0x00, 0x00, 0x00, 0x40, 0x00, 0x00, 0x00, 0x00, 0x00, 0x00, 0x00, 0x00, 0x00, 0x00, 0x00, 0x00, 0x00, 0x00, 0x00, 0x00, 0x00, 0x00, 0x00, 0x00, 0x00, 0x00, 0x00,  
....................   0x00, 0x00, 0x00, 0x00, 0x00, 0x00, 0x00, 0x00, 0x00, 0x00, 0x00, 0x00, 0x00, 0x00, 0x00, 0x00, 0x00, 0x00, 0x00, 0x00, 0x00, 0x00, 0x00, 0x00, 0x00, 0x00, 0x00, 0x00, 0x00, 0x80, 0x80, 0x80, 0x00, 0x40, 0x40, 0x80, 0x80, 0x80, 0x08, 0x00, 0x10, 0x20, 0x20, 0x40, 0x00, 0x00, 0x80, 0xc0, 0x60, 0x21, 0x34, 0x10, 0x10, 0x10, 0x10, 0x20, 0x20, 0x40, 0x86, 0x01, 0x00, 0x00, 0x00, 0x00, 0x00, 0x80, 0x80, 0x80, 0x00, 0x00, 0x00, 0x00, 0x00, 0x00, 0x00, 0x00, 0x00, 0x00, 0x00, 0x00, 0x00, 0x00, 0x00, 0x00,  
....................   0x00, 0x00, 0x00, 0x00, 0x00, 0x00, 0x00, 0x00, 0x00, 0x00, 0x00, 0x00, 0x00, 0x00, 0x00, 0x00, 0x00, 0x00, 0x00, 0x00, 0x00, 0x00, 0x00, 0x00, 0xf0, 0x08, 0x06, 0x02, 0x01, 0x00, 0x00, 0x00, 0x00, 0x00, 0x00, 0x00, 0x00, 0x00, 0x01, 0x01, 0x02, 0x04, 0x18, 0x08, 0x08, 0x0e, 0x09, 0x10, 0x10, 0x10, 0x20, 0x60, 0xc0, 0x00, 0x00, 0x00, 0x00, 0x00, 0x00, 0xe7, 0x18, 0x00, 0x01, 0x01, 0x01, 0x00, 0x00, 0x00, 0x00, 0x00, 0x00, 0x00, 0x00, 0x00, 0x00, 0x00, 0x00, 0x00, 0x00, 0x00, 0x00, 0x00, 0x00, 0x00,  
....................   0x00, 0x00, 0x00, 0x00, 0x00, 0x00, 0x00, 0x00, 0x00, 0x00, 0x00, 0x00, 0x00, 0x00, 0x00, 0x80, 0x60, 0x18, 0x0c, 0x04, 0x02, 0x02, 0x01, 0x01, 0x01, 0x00, 0x00, 0x00, 0x00, 0x00, 0x00, 0x00, 0x00, 0x00, 0x00, 0x00, 0x00, 0x00, 0x00, 0x00, 0x00, 0x00, 0x00, 0x00, 0x00, 0x00, 0x00, 0x00, 0x00, 0x00, 0x00, 0x00, 0x00, 0x01, 0x01, 0x01, 0x01, 0x01, 0x01, 0x02, 0x02, 0x04, 0x0d, 0x10, 0x62, 0x80, 0x04, 0x08, 0x00, 0x00, 0x00, 0x00, 0x00, 0x00, 0x00, 0x00, 0x00, 0x00, 0x00, 0x00, 0x00, 0x00, 0x00, 0x00,  
....................   0x00, 0x00, 0x00, 0x00, 0x00, 0x00, 0x00, 0x00, 0x00, 0x00, 0x00, 0x00, 0x00, 0x00, 0x00, 0x3f, 0xe0, 0x80, 0x00, 0x00, 0x00, 0x00, 0x00, 0x00, 0x00, 0x00, 0x00, 0x00, 0x00, 0x00, 0x00, 0x00, 0x00, 0x00, 0x00, 0x00, 0x00, 0x00, 0x00, 0x00, 0x00, 0x00, 0x00, 0x00, 0x00, 0x00, 0x00, 0x00, 0x00, 0x00, 0x00, 0x00, 0x00, 0x00, 0x00, 0x00, 0x00, 0x00, 0x00, 0x00, 0x00, 0x00, 0x00, 0x80, 0x60, 0x1f, 0x00, 0x00, 0x00, 0x00, 0x00, 0x00, 0x00, 0x00, 0x00, 0x00, 0x00, 0x00, 0x00, 0x00, 0x00, 0x00, 0x00, 0x00,  
....................   0x00, 0x00, 0x00, 0x00, 0x00, 0x00, 0x00, 0x00, 0x00, 0x00, 0x00, 0x00, 0x00, 0x00, 0x00, 0x00, 0x00, 0x01, 0x03, 0x06, 0x04, 0x04, 0x08, 0x08, 0x08, 0x08, 0x08, 0x08, 0x08, 0x08, 0x08, 0x08, 0x08, 0x08, 0x08, 0x08, 0x08, 0x08, 0x08, 0x08, 0x08, 0x08, 0x08, 0x08, 0x08, 0x08, 0x08, 0x08, 0x08, 0x08, 0x08, 0x08, 0x08, 0x08, 0x08, 0x08, 0x08, 0x08, 0x08, 0x04, 0x04, 0x02, 0x03, 0x01, 0x00, 0x00, 0x00, 0x00, 0x00, 0x00, 0x00, 0x00, 0x00, 0x00, 0x00, 0x00, 0x00, 0x00, 0x00, 0x00, 0x00, 0x00, 0x00, 0x00 
.................... }; 
....................  
.................... //function prototypes 
.................... void    lcd_init(); 
.................... void    lcd_command(char command); 
.................... void    lcd_data(char data); 
.................... void    lcd_spi(char spi_data); 
.................... void    lcd_gotoxy(char x, char y); 
.................... void    lcd_contrast (byte contrast); 
.................... void    lcd_putc(char cvar); 
.................... void    lcd_putcInv(char cvar); 
.................... void    lcd_clear(); 
.................... void    table_to_lcd(); 
.................... void    table_to_lcd_inverted(); 
.................... void    lcd_dot (char x, char y); 
.................... void    lcd_print_digit(char digit, char x, char y); 
.................... void    lcd_date(unsigned char date, char x, char y); 
....................  
.................... char char_row,charsel,charpos,chardata; 
.................... int16 ddram; 
....................  
.................... void lcd_init() { 
....................    output_high(lcd_dc);           
*
05BC:  BSF    03.5
05BD:  BCF    08.3
05BE:  BCF    03.5
05BF:  BSF    08.3
....................    output_high(lcd_cs);    
05C0:  BSF    03.5
05C1:  BCF    05.5
05C2:  BCF    03.5
05C3:  BSF    05.5
....................    delay_us(200); 
05C4:  MOVLW  C8
05C5:  BSF    03.5
05C6:  MOVWF  20
....................  
....................    output_low(lcd_res); 
*
05D5:  BCF    08.2
05D6:  BCF    03.5
05D7:  BCF    08.2
....................    delay_ms(50); 
05D8:  MOVLW  32
05D9:  BSF    03.5
05DA:  MOVWF  21
05DB:  BCF    03.5
05DC:  CALL   48D
....................    output_high(lcd_res); 
05DD:  BSF    03.5
05DE:  BCF    08.2
05DF:  BCF    03.5
05E0:  BSF    08.2
05E1:  CLRF   2C
05E2:  BTFSC  0B.7
05E3:  BSF    2C.7
05E4:  BCF    0B.7
....................  
....................    lcd_command(0x21);  
05E5:  MOVLW  21
05E6:  BSF    03.5
05E7:  MOVWF  32
05E8:  BCF    03.5
05E9:  CALL   3C7
05EA:  BTFSC  2C.7
05EB:  BSF    0B.7
05EC:  CLRF   2C
05ED:  BTFSC  0B.7
05EE:  BSF    2C.7
05EF:  BCF    0B.7
....................    lcd_command(0xc8);  
05F0:  MOVLW  C8
05F1:  BSF    03.5
05F2:  MOVWF  32
05F3:  BCF    03.5
05F4:  CALL   3C7
05F5:  BTFSC  2C.7
05F6:  BSF    0B.7
05F7:  CLRF   2C
05F8:  BTFSC  0B.7
05F9:  BSF    2C.7
05FA:  BCF    0B.7
....................    lcd_command(0x12);  
05FB:  MOVLW  12
05FC:  BSF    03.5
05FD:  MOVWF  32
05FE:  BCF    03.5
05FF:  CALL   3C7
0600:  BTFSC  2C.7
0601:  BSF    0B.7
0602:  CLRF   2C
0603:  BTFSC  0B.7
0604:  BSF    2C.7
0605:  BCF    0B.7
....................    lcd_command(0x20);  
0606:  MOVLW  20
0607:  BSF    03.5
0608:  MOVWF  32
0609:  BCF    03.5
060A:  CALL   3C7
060B:  BTFSC  2C.7
060C:  BSF    0B.7
060D:  CLRF   2C
060E:  BTFSC  0B.7
060F:  BSF    2C.7
0610:  BCF    0B.7
....................                              
....................    lcd_command(0x09);  
0611:  MOVLW  09
0612:  BSF    03.5
0613:  MOVWF  32
0614:  BCF    03.5
0615:  CALL   3C7
0616:  BTFSC  2C.7
0617:  BSF    0B.7
....................  
....................    delay_ms(50); 
0618:  MOVLW  32
0619:  BSF    03.5
061A:  MOVWF  21
061B:  BCF    03.5
061C:  CALL   48D
061D:  CLRF   2C
061E:  BTFSC  0B.7
061F:  BSF    2C.7
0620:  BCF    0B.7
....................  
....................    lcd_clear();        
0621:  CALL   400
0622:  BTFSC  2C.7
0623:  BSF    0B.7
....................  
....................    delay_ms(10); 
0624:  MOVLW  0A
0625:  BSF    03.5
0626:  MOVWF  21
0627:  BCF    03.5
0628:  CALL   48D
0629:  CLRF   2C
062A:  BTFSC  0B.7
062B:  BSF    2C.7
062C:  BCF    0B.7
....................  
....................    lcd_command(0x08);  
062D:  MOVLW  08
062E:  BSF    03.5
062F:  MOVWF  32
0630:  BCF    03.5
0631:  CALL   3C7
0632:  BTFSC  2C.7
0633:  BSF    0B.7
....................    delay_ms(10); 
0634:  MOVLW  0A
0635:  BSF    03.5
0636:  MOVWF  21
0637:  BCF    03.5
0638:  CALL   48D
0639:  CLRF   2C
063A:  BTFSC  0B.7
063B:  BSF    2C.7
063C:  BCF    0B.7
....................  
....................    lcd_command(0x0c); 
063D:  MOVLW  0C
063E:  BSF    03.5
063F:  MOVWF  32
0640:  BCF    03.5
0641:  CALL   3C7
0642:  BTFSC  2C.7
0643:  BSF    0B.7
.................... } 
....................  
.................... void lcd_clear() { 
....................    lcd_gotoxy(0,0);    
*
0400:  BSF    03.5
0401:  CLRF   2F
0402:  CLRF   30
0403:  BCF    03.5
0404:  CALL   3D9
....................    for (ddram=504; ddram>0; ddram--) 
0405:  MOVLW  01
0406:  MOVWF  33
0407:  MOVLW  F8
0408:  MOVWF  32
0409:  MOVF   32,F
040A:  BTFSS  03.2
040B:  GOTO   40F
040C:  MOVF   33,F
040D:  BTFSC  03.2
040E:  GOTO   418
....................       lcd_data(0x00); 
040F:  BSF    03.5
0410:  CLRF   2F
0411:  BCF    03.5
0412:  CALL   3EA
0413:  MOVF   32,W
0414:  BTFSC  03.2
0415:  DECF   33,F
0416:  DECF   32,F
0417:  GOTO   409
0418:  RETURN
.................... } 
....................  
.................... void lcd_command(char command) 
.................... { 
....................    output_low(lcd_dc);    
*
03C7:  BSF    03.5
03C8:  BCF    08.3
03C9:  BCF    03.5
03CA:  BCF    08.3
....................    #ifdef LCD_CS 
....................    output_low(lcd_cs); 
03CB:  BSF    03.5
03CC:  BCF    05.5
03CD:  BCF    03.5
03CE:  BCF    05.5
....................    #endif 
....................    spi_xfer(LCD_STREAM, command); 
03CF:  BSF    03.5
03D0:  MOVF   32,W
03D1:  MOVWF  33
03D2:  BCF    03.5
03D3:  CALL   3BA
....................    #ifdef LCD_CS 
....................    output_high(lcd_cs); 
03D4:  BSF    03.5
03D5:  BCF    05.5
03D6:  BCF    03.5
03D7:  BSF    05.5
....................    #endif 
03D8:  RETURN
.................... } 
....................  
.................... void lcd_data(char data) 
.................... { 
....................    output_high(lcd_dc); 
*
03EA:  BSF    03.5
03EB:  BCF    08.3
03EC:  BCF    03.5
03ED:  BSF    08.3
....................    #ifdef LCD_CS 
....................    output_low(lcd_cs); 
03EE:  BSF    03.5
03EF:  BCF    05.5
03F0:  BCF    03.5
03F1:  BCF    05.5
....................    #endif 
....................    delay_us(2); 
03F2:  MOVLW  03
03F3:  MOVWF  77
03F4:  DECFSZ 77,F
03F5:  GOTO   3F4
....................    spi_xfer(LCD_STREAM, data); 
03F6:  BSF    03.5
03F7:  MOVF   2F,W
03F8:  MOVWF  33
03F9:  BCF    03.5
03FA:  CALL   3BA
....................    #ifdef LCD_CS 
....................    output_high(lcd_cs); 
03FB:  BSF    03.5
03FC:  BCF    05.5
03FD:  BCF    03.5
03FE:  BSF    05.5
....................    #endif 
03FF:  RETURN
.................... } 
....................  
.................... void lcd_gotoxy(char x, char y) {   // Nokia LCD 3310 Position cursor 
....................    lcd_command(0x40|(y&0x07));     // Y axe initialisation: 0100 0yyy 
*
03D9:  BSF    03.5
03DA:  MOVF   30,W
03DB:  ANDLW  07
03DC:  IORLW  40
03DD:  MOVWF  31
03DE:  MOVWF  32
03DF:  BCF    03.5
03E0:  CALL   3C7
....................    lcd_command(0x80|(x&0x7f));     // X axe initialisation: 1xxx xxxx 
03E1:  BSF    03.5
03E2:  MOVF   2F,W
03E3:  ANDLW  7F
03E4:  IORLW  80
03E5:  MOVWF  31
03E6:  MOVWF  32
03E7:  BCF    03.5
03E8:  CALL   3C7
03E9:  RETURN
.................... } 
....................  
.................... void lcd_contrast (char contrast) { 
....................     lcd_command(0x21);                  // LCD Extended Commands. 
....................     lcd_command(0x80 | contrast);       // Set LCD Vop (Contrast). 
....................     lcd_command(0x20);                  // LCD Standard Commands, horizontal addressing mode. 
.................... } 
....................  
.................... void lcd_putc(char cvar) {               // Write 1 character to LCD 
....................    charsel=cvar; 
*
04C8:  BSF    03.5
04C9:  MOVF   23,W
04CA:  BCF    03.5
04CB:  MOVWF  2F
....................    table_to_lcd(); 
*
0518:  RETURN
.................... } 
.................... void lcd_putcInv(char cvar) {               // Write 1 character to LCD 
....................    charsel=cvar; 
....................    table_to_lcd_inverted(); 
.................... } 
.................... void table_to_lcd() {                      // extract ascii from tables & write to LCD 
....................    if (charsel<0x20) return; 
*
04CC:  MOVF   2F,W
04CD:  SUBLW  1F
04CE:  BTFSC  03.0
04CF:  GOTO   518
....................    if (charsel>0x7f) return; 
04D0:  MOVF   2F,W
04D1:  SUBLW  7F
04D2:  BTFSS  03.0
04D3:  GOTO   518
....................  
....................    for (char_row=0;char_row<5;char_row++) 
04D4:  CLRF   2E
04D5:  MOVF   2E,W
04D6:  SUBLW  04
04D7:  BTFSS  03.0
04D8:  GOTO   50E
....................       { 
....................          if (charsel<0x50){charpos=(((charsel&0xff)-0x20)*5);chardata=TABLE1[(charpos+char_row)];}   // use TABLE1 
04D9:  MOVF   2F,W
04DA:  SUBLW  4F
04DB:  BTFSS  03.0
04DC:  GOTO   4ED
04DD:  MOVF   2F,W
04DE:  ADDLW  E0
04DF:  BSF    03.5
04E0:  MOVWF  25
04E1:  MOVWF  29
04E2:  MOVLW  05
04E3:  MOVWF  2A
04E4:  BCF    03.5
04E5:  CALL   4A1
04E6:  MOVF   78,W
04E7:  MOVWF  30
04E8:  MOVF   2E,W
04E9:  ADDWF  30,W
04EA:  CALL   05C
04EB:  MOVWF  78
04EC:  MOVWF  31
....................          if (charsel>0x4f){charpos=(((charsel&0xff)-0x50)*5);chardata=TABLE2[(charpos+char_row)];}   // use TABLE2 
04ED:  MOVF   2F,W
04EE:  SUBLW  4F
04EF:  BTFSC  03.0
04F0:  GOTO   501
04F1:  MOVF   2F,W
04F2:  ADDLW  B0
04F3:  BSF    03.5
04F4:  MOVWF  25
04F5:  MOVWF  29
04F6:  MOVLW  05
04F7:  MOVWF  2A
04F8:  BCF    03.5
04F9:  CALL   4A1
04FA:  MOVF   78,W
04FB:  MOVWF  30
04FC:  MOVF   2E,W
04FD:  ADDWF  30,W
04FE:  CALL   153
04FF:  MOVWF  78
0500:  MOVWF  31
0501:  CLRF   2C
0502:  BTFSC  0B.7
0503:  BSF    2C.7
0504:  BCF    0B.7
....................  
....................          lcd_data(chardata);  // send data to nokia 
0505:  MOVF   31,W
0506:  BSF    03.5
0507:  MOVWF  2F
0508:  BCF    03.5
0509:  CALL   3EA
050A:  BTFSC  2C.7
050B:  BSF    0B.7
050C:  INCF   2E,F
050D:  GOTO   4D5
050E:  CLRF   2C
050F:  BTFSC  0B.7
0510:  BSF    2C.7
0511:  BCF    0B.7
....................       } 
....................          lcd_data(0x00);      // 1 byte (always blank) 
0512:  BSF    03.5
0513:  CLRF   2F
0514:  BCF    03.5
0515:  CALL   3EA
0516:  BTFSC  2C.7
0517:  BSF    0B.7
.................... } 
.................... void table_to_lcd_inverted() {                      // extract ascii from tables & write to LCD 
....................    if (charsel<0x20) return; 
....................    if (charsel>0x7f) return; 
....................  
....................    for (char_row=0;char_row<5;char_row++) 
....................       { 
....................          if (charsel<0x50){charpos=(((charsel&0xff)-0x20)*5);chardata=TABLE1[(charpos+char_row)];}   // use TABLE1 
....................          if (charsel>0x4f){charpos=(((charsel&0xff)-0x50)*5);chardata=TABLE2[(charpos+char_row)];}   // use TABLE2 
....................  
....................          lcd_data(~chardata);  // send data to nokia 
....................       } 
....................          lcd_data(0xff);      // 1 byte (always blank) 
.................... } 
.................... void lcd_dot (char x, char y) { 
....................     char offset; 
....................     byte  data; 
....................  
....................     if (x > 84) return; 
....................     if (y > 48) return; 
....................  
....................     offset = y % 8; 
....................     data = (0x01<<offset); 
....................          
....................     lcd_gotoxy(x, (y/8)); 
....................     lcd_data(data); 
.................... } 
....................  
.................... void lcd_print_digit(char digit, char x, char y){ 
....................    int temp; 
....................    for (char row = 0; row <= 1; row++){ 
*
0715:  BSF    03.5
0716:  CLRF   26
0717:  MOVF   26,W
0718:  SUBLW  01
0719:  BTFSS  03.0
071A:  GOTO   76E
....................       lcd_gotoxy(x, y+row); 
071B:  MOVF   26,W
071C:  ADDWF  24,W
071D:  MOVWF  28
071E:  BCF    03.5
071F:  CLRF   2C
0720:  BTFSC  0B.7
0721:  BSF    2C.7
0722:  BCF    0B.7
0723:  BSF    03.5
0724:  MOVF   23,W
0725:  MOVWF  2F
0726:  MOVF   28,W
0727:  MOVWF  30
0728:  BCF    03.5
0729:  CALL   3D9
072A:  BTFSC  2C.7
072B:  BSF    0B.7
....................       for(char col = 0; col < 10; col++){ 
072C:  BSF    03.5
072D:  CLRF   27
072E:  MOVF   27,W
072F:  SUBLW  09
0730:  BTFSS  03.0
0731:  GOTO   76C
....................          temp = (digit*20)+(10*row)+col; 
0732:  MOVF   22,W
0733:  MOVWF  29
0734:  MOVLW  14
0735:  MOVWF  2A
0736:  BCF    03.5
0737:  CALL   4A1
0738:  MOVF   78,W
0739:  BSF    03.5
073A:  MOVWF  28
073B:  MOVLW  0A
073C:  MOVWF  29
073D:  MOVF   26,W
073E:  MOVWF  2A
073F:  BCF    03.5
0740:  CALL   4A1
0741:  MOVF   78,W
0742:  BSF    03.5
0743:  ADDWF  28,W
0744:  ADDWF  27,W
0745:  MOVWF  25
....................          if (digit == 12) { 
0746:  MOVF   22,W
0747:  SUBLW  0C
0748:  BTFSS  03.2
0749:  GOTO   757
074A:  BCF    03.5
074B:  CLRF   2C
074C:  BTFSC  0B.7
074D:  BSF    2C.7
074E:  BCF    0B.7
....................          lcd_data(0x00); 
074F:  BSF    03.5
0750:  CLRF   2F
0751:  BCF    03.5
0752:  CALL   3EA
0753:  BTFSC  2C.7
0754:  BSF    0B.7
....................          continue;} 
0755:  GOTO   769
0756:  BSF    03.5
....................          lcd_data(digits[temp]); 
0757:  CLRF   7A
0758:  MOVF   25,W
0759:  BCF    03.5
075A:  CALL   24A
075B:  BSF    03.5
075C:  MOVWF  28
075D:  BCF    03.5
075E:  CLRF   2C
075F:  BTFSC  0B.7
0760:  BSF    2C.7
0761:  BCF    0B.7
0762:  BSF    03.5
0763:  MOVF   28,W
0764:  MOVWF  2F
0765:  BCF    03.5
0766:  CALL   3EA
0767:  BTFSC  2C.7
0768:  BSF    0B.7
0769:  BSF    03.5
076A:  INCF   27,F
076B:  GOTO   72E
....................       } 
076C:  INCF   26,F
076D:  GOTO   717
....................    } 
076E:  BCF    03.5
076F:  RETURN
.................... } 
.................... void lcd_date(unsigned char date, char x, char y){ 
....................    lcd_gotoxy(x, y); 
....................    if (date > 6) return; 
....................    switch (date) { 
....................       case 0:{ 
....................          lcd_putc("CHU NHAT"); 
....................          break; 
....................       } 
....................       case 1:{ 
....................          lcd_putc("THU HAI"); 
....................          break; 
....................       } 
....................       case 2:{ 
....................          lcd_putc("THU BA"); 
....................          break; 
....................       } 
....................       case 3:{ 
....................          lcd_putc("THU TU"); 
....................          break; 
....................       } 
....................       case 4:{ 
....................          lcd_putc("THU NAM"); 
....................          break; 
....................       } 
....................       case 5:{ 
....................          lcd_putc("THU SAU"); 
....................          break; 
....................       } 
....................       case 6:{ 
....................          lcd_putc("THU BAY"); 
....................          break; 
....................       } 
....................    } 
.................... } 
....................  
....................  
.................... #include "5110lib\dht11.c"  
.................... boolean startSig(){ 
....................    output_low(dht11_pin); 
....................    delay_ms(30); 
....................    output_float(dht11_pin); 
....................    delay_us(80); 
....................    if (!input(dht11_pin)){ 
....................       delay_us(80); 
....................       if (input(dht11_pin))  
....................          return 1; 
....................       else return 0; 
....................    } 
.................... } 
.................... int Time_out = 0; 
.................... unsigned int8 Read_Data(){ 
....................   unsigned int8 i, k, _data = 0;    
....................   if(Time_out) 
....................     break; 
....................   for(i = 0; i < 8; i++){ 
....................     k = 0; 
....................     while(!input(dht11_pin)){           //Doi bit 1, neu thoi gian bit 0 > 50, 100 cho chac an, thi time out 
....................       k++; 
....................       if(k > 100){ 
....................         Time_out = 1; 
....................         break; 
....................       } 
....................       delay_us(1); 
....................     } 
....................     delay_us(30); // Do dai muc 1 cua bit 0 
....................     if(!input(dht11_pin)) 
....................       bit_clear(_data, (7 - i));        // data bit = 0 
....................     else{ 
....................       bit_set(_data, (7 - i));          // Set bit (7 - i) 
....................       while(input(dht11_pin)){          // Wait until DHT11 pin goes low 
....................         k++; 
....................         if(k > 100){ 
....................         Time_out = 1; 
....................         break; 
....................       } 
....................       delay_us(1);} 
....................     } 
....................   } 
....................   return _data; 
.................... } 
....................  
.................... void dht11Get(char *h1, char *h2, char *t1, char *t2){ 
....................    Time_out = 0; 
....................    if (startSig()){ 
....................       *h1 = Read_Data(); 
....................       *h2 = Read_Data(); 
....................       *t1 = Read_Data(); 
....................       *t2 = Read_Data(); 
....................       if (Time_out){ 
....................          *h1 = '#'; 
....................          *h2 = '#'; 
....................          *t1 = '#'; 
....................          *t2 = '#'; 
....................       } 
....................    } 
.................... } 
....................  
....................  
.................... //co tran timer1 
.................... #BIT TMR1IF=0X0C.0       
....................  
.................... char state = 0; 
.................... char k; 
.................... char l; 
.................... char count = 0; 
.................... int hr1 = 0, hr2 =0, min1 = 0, min2 = 0, sec1 = 0, sec2= 0, temp1 = 0 , temp2 =0, date =0, hum1 =0, hum2 =0; 
.................... int incode; 
.................... char cnt; 
.................... int sec; 
.................... boolean connected = 0; 
.................... boolean ready = 0; 
....................  
.................... char buffer[32]; 
.................... char *ptr = &buffer; 
....................  
.................... void init() 
.................... { 
....................     setup_adc_ports(NO_ANALOGS); 
*
058D:  BSF    03.5
058E:  BSF    03.6
058F:  MOVF   09,W
0590:  ANDLW  C0
0591:  MOVWF  09
0592:  BCF    03.6
0593:  BCF    1F.4
0594:  BCF    1F.5
0595:  MOVLW  00
0596:  BSF    03.6
0597:  MOVWF  08
....................     setup_adc (ADC_OFF) ; 
0598:  BCF    03.5
0599:  BCF    03.6
059A:  BCF    1F.0
....................     setup_uart(115200); 
059B:  BSF    03.5
059C:  BSF    03.6
059D:  BSF    07.3
059E:  MOVLW  2A
059F:  BCF    03.6
05A0:  MOVWF  19
05A1:  MOVLW  00
05A2:  MOVWF  1A
05A3:  MOVLW  A6
05A4:  MOVWF  18
05A5:  MOVLW  90
05A6:  BCF    03.5
05A7:  MOVWF  18
....................     enable_interrupts(INT_RDA); 
05A8:  BSF    03.5
05A9:  BSF    0C.5
....................     enable_interrupts(GLOBAL); 
05AA:  MOVLW  C0
05AB:  BCF    03.5
05AC:  IORWF  0B,F
....................     enable_interrupts(INT_EXT); 
05AD:  BSF    0B.4
....................     ext_int_edge(H_TO_L); 
05AE:  BSF    03.5
05AF:  BCF    01.6
....................     setup_timer_0( RTCC_INTERNAL | RTCC_DIV_256); 
05B0:  MOVF   01,W
05B1:  ANDLW  C0
05B2:  IORLW  07
05B3:  MOVWF  01
....................     setup_timer_1( T1_INTERNAL | T1_DIV_BY_8); 
05B4:  MOVLW  35
05B5:  BCF    03.5
05B6:  MOVWF  10
....................     SET_TIMER1(3036); 
05B7:  CLRF   0E
05B8:  MOVLW  0B
05B9:  MOVWF  0F
05BA:  MOVLW  DC
05BB:  MOVWF  0E
....................     lcd_init (); 
....................     TMR1IF = 1; // ep ngat timer1 
*
0644:  BSF    0C.0
0645:  CLRF   2C
0646:  BTFSC  0B.7
0647:  BSF    2C.7
0648:  BCF    0B.7
....................     lcd_gotoxy(22, 1); 
0649:  MOVLW  16
064A:  BSF    03.5
064B:  MOVWF  2F
064C:  MOVLW  01
064D:  MOVWF  30
064E:  BCF    03.5
064F:  CALL   3D9
0650:  BTFSC  2C.7
0651:  BSF    0B.7
....................     lcd_putc("WELCOME!"); 
0652:  MOVLW  74
0653:  BSF    03.6
0654:  MOVWF  0D
0655:  MOVLW  03
0656:  MOVWF  0F
0657:  BCF    03.6
0658:  CALL   519
0659:  CLRF   2C
065A:  BTFSC  0B.7
065B:  BSF    2C.7
065C:  BCF    0B.7
....................     lcd_gotoxy(12, 2); 
065D:  MOVLW  0C
065E:  BSF    03.5
065F:  MOVWF  2F
0660:  MOVLW  02
0661:  MOVWF  30
0662:  BCF    03.5
0663:  CALL   3D9
0664:  BTFSC  2C.7
0665:  BSF    0B.7
....................     lcd_putc("San pham cua"); 
0666:  MOVLW  79
0667:  BSF    03.6
0668:  MOVWF  0D
0669:  MOVLW  03
066A:  MOVWF  0F
066B:  BCF    03.6
066C:  CALL   519
066D:  CLRF   2C
066E:  BTFSC  0B.7
066F:  BSF    2C.7
0670:  BCF    0B.7
....................     lcd_gotoxy(27, 3); 
0671:  MOVLW  1B
0672:  BSF    03.5
0673:  MOVWF  2F
0674:  MOVLW  03
0675:  MOVWF  30
0676:  BCF    03.5
0677:  CALL   3D9
0678:  BTFSC  2C.7
0679:  BSF    0B.7
....................     lcd_putc("NHOM 7"); 
067A:  MOVLW  80
067B:  BSF    03.6
067C:  MOVWF  0D
067D:  MOVLW  03
067E:  MOVWF  0F
067F:  BCF    03.6
0680:  CALL   519
....................     delay_ms(2000); 
0681:  MOVLW  08
0682:  BSF    03.5
0683:  MOVWF  20
0684:  MOVLW  FA
0685:  MOVWF  21
0686:  BCF    03.5
0687:  CALL   48D
0688:  BSF    03.5
0689:  DECFSZ 20,F
068A:  GOTO   684
068B:  BCF    03.5
068C:  CLRF   2C
068D:  BTFSC  0B.7
068E:  BSF    2C.7
068F:  BCF    0B.7
....................     lcd_clear(); 
0690:  CALL   400
0691:  BTFSC  2C.7
0692:  BSF    0B.7
0693:  CLRF   2C
0694:  BTFSC  0B.7
0695:  BSF    2C.7
0696:  BCF    0B.7
....................     lcd_gotoxy(10, 2); 
0697:  MOVLW  0A
0698:  BSF    03.5
0699:  MOVWF  2F
069A:  MOVLW  02
069B:  MOVWF  30
069C:  BCF    03.5
069D:  CALL   3D9
069E:  BTFSC  2C.7
069F:  BSF    0B.7
....................     lcd_putc("Connecting "); 
06A0:  MOVLW  84
06A1:  BSF    03.6
06A2:  MOVWF  0D
06A3:  MOVLW  03
06A4:  MOVWF  0F
06A5:  BCF    03.6
06A6:  CALL   519
06A7:  CLRF   2C
06A8:  BTFSC  0B.7
06A9:  BSF    2C.7
06AA:  BCF    0B.7
....................     lcd_gotoxy(15, 3); 
06AB:  MOVLW  0F
06AC:  BSF    03.5
06AD:  MOVWF  2F
06AE:  MOVLW  03
06AF:  MOVWF  30
06B0:  BCF    03.5
06B1:  CALL   3D9
06B2:  BTFSC  2C.7
06B3:  BSF    0B.7
....................     while(!connected){ 
06B4:  BTFSC  49.0
06B5:  GOTO   6D7
06B6:  CLRF   2C
06B7:  BTFSC  0B.7
06B8:  BSF    2C.7
06B9:  BCF    0B.7
....................        lcd_data(0x80); 
06BA:  MOVLW  80
06BB:  BSF    03.5
06BC:  MOVWF  2F
06BD:  BCF    03.5
06BE:  CALL   3EA
06BF:  BTFSC  2C.7
06C0:  BSF    0B.7
06C1:  CLRF   2C
06C2:  BTFSC  0B.7
06C3:  BSF    2C.7
06C4:  BCF    0B.7
....................        lcd_data(0x00); 
06C5:  BSF    03.5
06C6:  CLRF   2F
06C7:  BCF    03.5
06C8:  CALL   3EA
06C9:  BTFSC  2C.7
06CA:  BSF    0B.7
....................        delay_ms(500); 
06CB:  MOVLW  02
06CC:  BSF    03.5
06CD:  MOVWF  20
06CE:  MOVLW  FA
06CF:  MOVWF  21
06D0:  BCF    03.5
06D1:  CALL   48D
06D2:  BSF    03.5
06D3:  DECFSZ 20,F
06D4:  GOTO   6CE
06D5:  BCF    03.5
06D6:  GOTO   6B4
06D7:  CLRF   2C
06D8:  BTFSC  0B.7
06D9:  BSF    2C.7
06DA:  BCF    0B.7
....................     } 
....................     lcd_clear(); 
06DB:  CALL   400
06DC:  BTFSC  2C.7
06DD:  BSF    0B.7
....................     while (!ready)  
06DE:  BTFSC  49.1
06DF:  GOTO   6E3
....................     sec1 = buffer[9]; 
06E0:  MOVF   53,W
06E1:  MOVWF  3F
06E2:  GOTO   6DE
....................     sec1 = buffer[10]; 
06E3:  MOVF   54,W
06E4:  MOVWF  3F
06E5:  BSF    0A.3
06E6:  BCF    0A.4
06E7:  GOTO   050 (RETURN)
.................... } 
....................  
.................... void buzz(){ 
....................    output_high(PIN_D1); 
06E8:  BSF    03.5
06E9:  BCF    08.1
06EA:  BCF    03.5
06EB:  BSF    08.1
....................    output_high(PIN_A4); 
06EC:  BSF    03.5
06ED:  BCF    05.4
06EE:  BCF    03.5
06EF:  BSF    05.4
....................    delay_ms(50); 
06F0:  MOVLW  32
06F1:  BSF    03.5
06F2:  MOVWF  21
06F3:  BCF    03.5
06F4:  CALL   48D
....................    output_low(PIN_A4); 
06F5:  BSF    03.5
06F6:  BCF    05.4
06F7:  BCF    03.5
06F8:  BCF    05.4
....................    output_low(PIN_D1); 
06F9:  BSF    03.5
06FA:  BCF    08.1
06FB:  BCF    03.5
06FC:  BCF    08.1
06FD:  RETURN
.................... } 
....................  
.................... //!#INT_TIMER1 
.................... //!void updateSec(){ 
.................... //!   TMR1IF = 0; 
.................... //!      SET_TIMER1(3036); 
.................... //!      cnt++; 
.................... //!      if (cnt==10){ 
.................... //!        sec++; 
.................... //!        if (sec>60){ 
.................... //!           sec = 0; 
.................... //!           buzz(); 
.................... //!           putc(0x40); 
.................... //!        } 
.................... //!        cnt=0; 
.................... //!        output_high(PIN_A4);  
.................... //!      } 
.................... //!      else output_low(PIN_A4);  
.................... //!      sec1 = sec/10 + 0x30; 
.................... //!      sec2 = sec%10 + 0x30; 
.................... //!} 
....................  
.................... #INT_RDA  
.................... void uart_receive() { 
....................    incode = getc(); 
*
038A:  BTFSS  0C.5
038B:  GOTO   38A
038C:  MOVF   1A,W
038D:  MOVWF  46
....................    if (incode == '@') {   
038E:  MOVF   46,W
038F:  SUBLW  40
0390:  BTFSS  03.2
0391:  GOTO   394
....................       connected = 1; 
0392:  BSF    49.0
....................       return; 
0393:  GOTO   3B6
....................    } 
....................    if (incode == '#') {   
0394:  MOVF   46,W
0395:  SUBLW  23
0396:  BTFSS  03.2
0397:  GOTO   39A
....................       ready=true; 
0398:  BSF    49.1
....................       return; 
0399:  GOTO   3B6
....................    } 
....................    if (incode == '$') {  
039A:  MOVF   46,W
039B:  SUBLW  24
039C:  BTFSS  03.2
039D:  GOTO   3AA
....................       *ptr = incode; 
039E:  MOVF   6A,W
039F:  MOVWF  04
03A0:  BCF    03.7
03A1:  BTFSC  6B.0
03A2:  BSF    03.7
03A3:  MOVF   46,W
03A4:  MOVWF  00
....................       ptr = &buffer; 
03A5:  CLRF   6B
03A6:  MOVLW  4A
03A7:  MOVWF  6A
....................       ready=false; 
03A8:  BCF    49.1
....................       return; 
03A9:  GOTO   3B6
....................    } 
....................    if (ready){ 
03AA:  BTFSS  49.1
03AB:  GOTO   3B6
....................       *ptr = incode; 
03AC:  MOVF   6A,W
03AD:  MOVWF  04
03AE:  BCF    03.7
03AF:  BTFSC  6B.0
03B0:  BSF    03.7
03B1:  MOVF   46,W
03B2:  MOVWF  00
....................       ptr++; 
03B3:  INCF   6A,F
03B4:  BTFSC  03.2
03B5:  INCF   6B,F
....................  
....................    } 
.................... } 
....................  
....................  
03B6:  BCF    0C.5
03B7:  BCF    0A.3
03B8:  BCF    0A.4
03B9:  GOTO   033
.................... #int_ext 
.................... void encoder() { 
....................    if (!state) { 
*
0419:  MOVF   37,F
041A:  BTFSS  03.2
041B:  GOTO   440
....................        state = 1; 
041C:  MOVLW  01
041D:  MOVWF  37
....................        l = input(PIN_D4); 
041E:  BSF    03.5
041F:  BSF    08.4
0420:  BCF    03.5
0421:  CLRF   39
0422:  BTFSC  08.4
0423:  INCF   39,F
....................        k = input(PIN_D5); 
0424:  BSF    03.5
0425:  BSF    08.5
0426:  BCF    03.5
0427:  CLRF   38
0428:  BTFSC  08.5
0429:  INCF   38,F
....................        Set_timer0(0); 
042A:  CLRF   01
....................        count++; 
042B:  INCF   3A,F
....................        lcd_clear(); 
042C:  CALL   400
....................        Set_timer1(0); 
042D:  CLRF   0E
042E:  CLRF   0F
042F:  CLRF   0E
....................        if (k) count++; 
0430:  MOVF   38,F
0431:  BTFSS  03.2
0432:  INCF   3A,F
....................        if (count > 3) count = 0; 
0433:  MOVF   3A,W
0434:  SUBLW  03
0435:  BTFSS  03.0
0436:  CLRF   3A
....................        if (count < 0) count = 1; 
....................        if (count == 2) putc('@'); // update thoi tiet khi vao man hinh thoi tiet 
0437:  MOVF   3A,W
0438:  SUBLW  02
0439:  BTFSS  03.2
043A:  GOTO   43F
043B:  MOVLW  40
043C:  BTFSS  0C.4
043D:  GOTO   43C
043E:  MOVWF  19
....................     } 
043F:  GOTO   446
....................     else { 
....................          if (get_timer0() > 49){ 
0440:  MOVF   01,W
0441:  SUBLW  31
0442:  BTFSC  03.0
0443:  GOTO   446
....................             state = 0; 
0444:  CLRF   37
....................             Set_timer0(0); 
0445:  CLRF   01
....................          } 
....................     } 
0446:  BCF    0B.1
0447:  BCF    0A.3
0448:  BCF    0A.4
0449:  GOTO   033
.................... } 
....................  
....................  
.................... void main() 
*
0800:  MOVF   03,W
0801:  ANDLW  1F
0802:  MOVWF  03
0803:  BSF    03.5
0804:  BSF    03.6
0805:  BSF    07.3
0806:  MOVLW  08
0807:  BCF    03.6
0808:  MOVWF  19
0809:  MOVLW  02
080A:  MOVWF  1A
080B:  MOVLW  A6
080C:  MOVWF  18
080D:  MOVLW  90
080E:  BCF    03.5
080F:  MOVWF  18
0810:  MOVLW  FF
0811:  MOVWF  2D
0812:  BCF    14.5
0813:  MOVLW  00
0814:  BSF    03.5
0815:  MOVWF  14
0816:  MOVLW  30
0817:  BCF    03.5
0818:  MOVWF  14
0819:  BCF    2D.5
081A:  MOVF   2D,W
081B:  BSF    03.5
081C:  MOVWF  07
081D:  BCF    03.5
081E:  BSF    2D.4
081F:  MOVF   2D,W
0820:  BSF    03.5
0821:  MOVWF  07
0822:  BCF    03.5
0823:  BCF    2D.3
0824:  MOVF   2D,W
0825:  BSF    03.5
0826:  MOVWF  07
0827:  BCF    03.5
0828:  CLRF   35
0829:  CLRF   34
082A:  CLRF   36
082B:  CLRF   37
082C:  CLRF   3A
082D:  CLRF   3B
082E:  CLRF   3C
082F:  CLRF   3D
0830:  CLRF   3E
0831:  CLRF   3F
0832:  CLRF   40
0833:  CLRF   41
0834:  CLRF   42
0835:  CLRF   43
0836:  CLRF   44
0837:  CLRF   45
0838:  BCF    49.0
0839:  BCF    49.1
083A:  CLRF   6B
083B:  MOVLW  4A
083C:  MOVWF  6A
083D:  BSF    03.5
083E:  BSF    03.6
083F:  MOVF   09,W
0840:  ANDLW  C0
0841:  MOVWF  09
0842:  BCF    03.6
0843:  BCF    1F.4
0844:  BCF    1F.5
0845:  MOVLW  00
0846:  BSF    03.6
0847:  MOVWF  08
0848:  BCF    03.5
0849:  CLRF   07
084A:  CLRF   08
084B:  CLRF   09
084C:  BCF    03.7
.................... { 
....................     init();  
084D:  BCF    0A.3
084E:  BCF    03.6
084F:  GOTO   58D
0850:  BSF    0A.3
....................     char x= 4, y=2; 
....................     char x1= 10, y1=2; 
0851:  MOVLW  04
0852:  MOVWF  6C
0853:  MOVLW  02
0854:  MOVWF  6D
0855:  MOVLW  0A
0856:  MOVWF  6E
0857:  MOVLW  02
0858:  MOVWF  6F
....................     buzz(); 
0859:  BCF    0A.3
085A:  CALL   6E8
085B:  BSF    0A.3
....................     WHILE (true)                                         
....................     {  
....................          if (TMR1IF == 1){ 
085C:  BTFSS  0C.0
085D:  GOTO   08F
....................             TMR1IF = 0; 
085E:  BCF    0C.0
....................             SET_TIMER1(3036); 
085F:  CLRF   0E
0860:  MOVLW  0B
0861:  MOVWF  0F
0862:  MOVLW  DC
0863:  MOVWF  0E
....................             cnt++; 
0864:  INCF   47,F
....................             if (cnt==10){ 
0865:  MOVF   47,W
0866:  SUBLW  0A
0867:  BTFSS  03.2
0868:  GOTO   077
....................               sec++; 
0869:  INCF   48,F
....................               if (sec>=60){ 
086A:  MOVF   48,W
086B:  SUBLW  3B
086C:  BTFSC  03.0
086D:  GOTO   076
....................                  sec = 0; 
086E:  CLRF   48
....................                  buzz(); 
086F:  BCF    0A.3
0870:  CALL   6E8
0871:  BSF    0A.3
....................                  putc(0x40); 
0872:  MOVLW  40
0873:  BTFSS  0C.4
0874:  GOTO   073
0875:  MOVWF  19
....................               } 
....................               cnt=0; 
0876:  CLRF   47
.................... //!              output_high(PIN_A4);  
....................             } 
.................... //!            else output_low(PIN_A4);  
....................             sec1 = sec/10 + 0x30; 
0877:  MOVF   48,W
0878:  BSF    03.5
0879:  MOVWF  20
087A:  MOVLW  0A
087B:  MOVWF  21
087C:  BCF    0A.3
087D:  BCF    03.5
087E:  CALL   6FE
087F:  BSF    0A.3
0880:  MOVLW  30
0881:  ADDWF  78,W
0882:  MOVWF  3F
....................             sec2 = sec%10 + 0x30; 
0883:  MOVF   48,W
0884:  BSF    03.5
0885:  MOVWF  20
0886:  MOVLW  0A
0887:  MOVWF  21
0888:  BCF    0A.3
0889:  BCF    03.5
088A:  CALL   6FE
088B:  BSF    0A.3
088C:  MOVLW  30
088D:  ADDWF  77,W
088E:  MOVWF  40
....................          } 
....................      
....................          if (count == 1){ 
088F:  DECFSZ 3A,W
0890:  GOTO   220
....................             hr1 = buffer[0]; 
0891:  MOVF   4A,W
0892:  MOVWF  3B
....................             hr2 = buffer[1]; 
0893:  MOVF   4B,W
0894:  MOVWF  3C
....................             min1 = buffer[2]; 
0895:  MOVF   4C,W
0896:  MOVWF  3D
....................             min2 = buffer[3]; 
0897:  MOVF   4D,W
0898:  MOVWF  3E
....................             date = buffer[4]; 
0899:  MOVF   4E,W
089A:  MOVWF  43
089B:  CLRF   2C
089C:  BTFSC  0B.7
089D:  BSF    2C.7
089E:  BCF    0B.7
....................              
....................             lcd_gotoxy(25, 0); 
089F:  MOVLW  19
08A0:  BSF    03.5
08A1:  MOVWF  2F
08A2:  CLRF   30
08A3:  BCF    0A.3
08A4:  BCF    03.5
08A5:  CALL   3D9
08A6:  BSF    0A.3
08A7:  BTFSC  2C.7
08A8:  BSF    0B.7
....................             lcd_putc(date-0x30); 
08A9:  MOVLW  30
08AA:  SUBWF  43,W
08AB:  BSF    03.5
08AC:  MOVWF  20
08AD:  MOVWF  23
08AE:  BCF    0A.3
08AF:  BCF    03.5
08B0:  CALL   4C8
08B1:  BSF    0A.3
....................             if (date == '0') lcd_putc("CHU NHAT"); 
08B2:  MOVF   43,W
08B3:  SUBLW  30
08B4:  BTFSS  03.2
08B5:  GOTO   0BF
08B6:  MOVLW  4A
08B7:  BSF    03.6
08B8:  MOVWF  0D
08B9:  MOVLW  04
08BA:  MOVWF  0F
08BB:  BCF    0A.3
08BC:  BCF    03.6
08BD:  CALL   519
08BE:  BSF    0A.3
....................             if (date == '1') lcd_putc("THU HAI"); 
08BF:  MOVF   43,W
08C0:  SUBLW  31
08C1:  BTFSS  03.2
08C2:  GOTO   0CC
08C3:  MOVLW  4F
08C4:  BSF    03.6
08C5:  MOVWF  0D
08C6:  MOVLW  04
08C7:  MOVWF  0F
08C8:  BCF    0A.3
08C9:  BCF    03.6
08CA:  CALL   519
08CB:  BSF    0A.3
....................             if (date == '2') lcd_putc("THU BA"); 
08CC:  MOVF   43,W
08CD:  SUBLW  32
08CE:  BTFSS  03.2
08CF:  GOTO   0D9
08D0:  MOVLW  53
08D1:  BSF    03.6
08D2:  MOVWF  0D
08D3:  MOVLW  04
08D4:  MOVWF  0F
08D5:  BCF    0A.3
08D6:  BCF    03.6
08D7:  CALL   519
08D8:  BSF    0A.3
....................             if (date == '3') lcd_putc("THU TU"); 
08D9:  MOVF   43,W
08DA:  SUBLW  33
08DB:  BTFSS  03.2
08DC:  GOTO   0E6
08DD:  MOVLW  57
08DE:  BSF    03.6
08DF:  MOVWF  0D
08E0:  MOVLW  04
08E1:  MOVWF  0F
08E2:  BCF    0A.3
08E3:  BCF    03.6
08E4:  CALL   519
08E5:  BSF    0A.3
....................             if (date == '4') lcd_putc("THU NAM"); 
08E6:  MOVF   43,W
08E7:  SUBLW  34
08E8:  BTFSS  03.2
08E9:  GOTO   0F3
08EA:  MOVLW  5B
08EB:  BSF    03.6
08EC:  MOVWF  0D
08ED:  MOVLW  04
08EE:  MOVWF  0F
08EF:  BCF    0A.3
08F0:  BCF    03.6
08F1:  CALL   519
08F2:  BSF    0A.3
....................             if (date == '5') lcd_putc("THU SAU"); 
08F3:  MOVF   43,W
08F4:  SUBLW  35
08F5:  BTFSS  03.2
08F6:  GOTO   100
08F7:  MOVLW  5F
08F8:  BSF    03.6
08F9:  MOVWF  0D
08FA:  MOVLW  04
08FB:  MOVWF  0F
08FC:  BCF    0A.3
08FD:  BCF    03.6
08FE:  CALL   519
08FF:  BSF    0A.3
....................             if (date == '6') lcd_putc("THU BAY"); 
0900:  MOVF   43,W
0901:  SUBLW  36
0902:  BTFSS  03.2
0903:  GOTO   10D
0904:  MOVLW  63
0905:  BSF    03.6
0906:  MOVWF  0D
0907:  MOVLW  04
0908:  MOVWF  0F
0909:  BCF    0A.3
090A:  BCF    03.6
090B:  CALL   519
090C:  BSF    0A.3
....................              
....................             lcd_print_digit(hr1 -0x30, x, y); 
090D:  MOVLW  30
090E:  SUBWF  3B,W
090F:  BSF    03.5
0910:  MOVWF  20
0911:  MOVWF  22
0912:  BCF    03.5
0913:  MOVF   6C,W
0914:  BSF    03.5
0915:  MOVWF  23
0916:  BCF    03.5
0917:  MOVF   6D,W
0918:  BSF    03.5
0919:  MOVWF  24
091A:  BCF    0A.3
091B:  BCF    03.5
091C:  CALL   715
091D:  BSF    0A.3
....................             lcd_print_digit(hr2-0x30, x + 12, y); 
091E:  MOVLW  30
091F:  SUBWF  3C,W
0920:  BSF    03.5
0921:  MOVWF  20
0922:  MOVLW  0C
0923:  BCF    03.5
0924:  ADDWF  6C,W
0925:  BSF    03.5
0926:  MOVWF  21
0927:  MOVF   20,W
0928:  MOVWF  22
0929:  MOVF   21,W
092A:  MOVWF  23
092B:  BCF    03.5
092C:  MOVF   6D,W
092D:  BSF    03.5
092E:  MOVWF  24
092F:  BCF    0A.3
0930:  BCF    03.5
0931:  CALL   715
0932:  BSF    0A.3
....................             lcd_print_digit(11, x + 24, y); 
0933:  MOVLW  18
0934:  ADDWF  6C,W
0935:  BSF    03.5
0936:  MOVWF  20
0937:  MOVLW  0B
0938:  MOVWF  22
0939:  MOVF   20,W
093A:  MOVWF  23
093B:  BCF    03.5
093C:  MOVF   6D,W
093D:  BSF    03.5
093E:  MOVWF  24
093F:  BCF    0A.3
0940:  BCF    03.5
0941:  CALL   715
0942:  BSF    0A.3
....................             lcd_print_digit(min1-0x30, x + 36, y);  
0943:  MOVLW  30
0944:  SUBWF  3D,W
0945:  BSF    03.5
0946:  MOVWF  20
0947:  MOVLW  24
0948:  BCF    03.5
0949:  ADDWF  6C,W
094A:  BSF    03.5
094B:  MOVWF  21
094C:  MOVF   20,W
094D:  MOVWF  22
094E:  MOVF   21,W
094F:  MOVWF  23
0950:  BCF    03.5
0951:  MOVF   6D,W
0952:  BSF    03.5
0953:  MOVWF  24
0954:  BCF    0A.3
0955:  BCF    03.5
0956:  CALL   715
0957:  BSF    0A.3
....................             lcd_print_digit(min2-0x30, x + 48, y); 
0958:  MOVLW  30
0959:  SUBWF  3E,W
095A:  BSF    03.5
095B:  MOVWF  20
095C:  MOVLW  30
095D:  BCF    03.5
095E:  ADDWF  6C,W
095F:  BSF    03.5
0960:  MOVWF  21
0961:  MOVF   20,W
0962:  MOVWF  22
0963:  MOVF   21,W
0964:  MOVWF  23
0965:  BCF    03.5
0966:  MOVF   6D,W
0967:  BSF    03.5
0968:  MOVWF  24
0969:  BCF    0A.3
096A:  BCF    03.5
096B:  CALL   715
096C:  BSF    0A.3
....................             lcd_putc(" "); 
096D:  MOVLW  67
096E:  BSF    03.6
096F:  MOVWF  0D
0970:  MOVLW  04
0971:  MOVWF  0F
0972:  BCF    0A.3
0973:  BCF    03.6
0974:  CALL   519
0975:  BSF    0A.3
....................             lcd_putc(sec1); 
0976:  MOVF   3F,W
0977:  BSF    03.5
0978:  MOVWF  23
0979:  BCF    0A.3
097A:  BCF    03.5
097B:  CALL   4C8
097C:  BSF    0A.3
....................             lcd_putc(sec2); 
097D:  MOVF   40,W
097E:  BSF    03.5
097F:  MOVWF  23
0980:  BCF    0A.3
0981:  BCF    03.5
0982:  CALL   4C8
0983:  BSF    0A.3
0984:  CLRF   2C
0985:  BTFSC  0B.7
0986:  BSF    2C.7
0987:  BCF    0B.7
....................             lcd_gotoxy(40,5); 
0988:  MOVLW  28
0989:  BSF    03.5
098A:  MOVWF  2F
098B:  MOVLW  05
098C:  MOVWF  30
098D:  BCF    0A.3
098E:  BCF    03.5
098F:  CALL   3D9
0990:  BSF    0A.3
0991:  BTFSC  2C.7
0992:  BSF    0B.7
0993:  CLRF   2C
0994:  BTFSC  0B.7
0995:  BSF    2C.7
0996:  BCF    0B.7
....................             lcd_data(0x80); 
0997:  MOVLW  80
0998:  BSF    03.5
0999:  MOVWF  2F
099A:  BCF    0A.3
099B:  BCF    03.5
099C:  CALL   3EA
099D:  BSF    0A.3
099E:  BTFSC  2C.7
099F:  BSF    0B.7
09A0:  CLRF   2C
09A1:  BTFSC  0B.7
09A2:  BSF    2C.7
09A3:  BCF    0B.7
....................             lcd_data(0x80); 
09A4:  MOVLW  80
09A5:  BSF    03.5
09A6:  MOVWF  2F
09A7:  BCF    0A.3
09A8:  BCF    03.5
09A9:  CALL   3EA
09AA:  BSF    0A.3
09AB:  BTFSC  2C.7
09AC:  BSF    0B.7
09AD:  CLRF   2C
09AE:  BTFSC  0B.7
09AF:  BSF    2C.7
09B0:  BCF    0B.7
....................             lcd_data(0x00); 
09B1:  BSF    03.5
09B2:  CLRF   2F
09B3:  BCF    0A.3
09B4:  BCF    03.5
09B5:  CALL   3EA
09B6:  BSF    0A.3
09B7:  BTFSC  2C.7
09B8:  BSF    0B.7
09B9:  CLRF   2C
09BA:  BTFSC  0B.7
09BB:  BSF    2C.7
09BC:  BCF    0B.7
....................             lcd_data(0x60); 
09BD:  MOVLW  60
09BE:  BSF    03.5
09BF:  MOVWF  2F
09C0:  BCF    0A.3
09C1:  BCF    03.5
09C2:  CALL   3EA
09C3:  BSF    0A.3
09C4:  BTFSC  2C.7
09C5:  BSF    0B.7
09C6:  CLRF   2C
09C7:  BTFSC  0B.7
09C8:  BSF    2C.7
09C9:  BCF    0B.7
....................             lcd_data(0x60); 
09CA:  MOVLW  60
09CB:  BSF    03.5
09CC:  MOVWF  2F
09CD:  BCF    0A.3
09CE:  BCF    03.5
09CF:  CALL   3EA
09D0:  BSF    0A.3
09D1:  BTFSC  2C.7
09D2:  BSF    0B.7
09D3:  CLRF   2C
09D4:  BTFSC  0B.7
09D5:  BSF    2C.7
09D6:  BCF    0B.7
....................             lcd_data(0x00); 
09D7:  BSF    03.5
09D8:  CLRF   2F
09D9:  BCF    0A.3
09DA:  BCF    03.5
09DB:  CALL   3EA
09DC:  BSF    0A.3
09DD:  BTFSC  2C.7
09DE:  BSF    0B.7
09DF:  CLRF   2C
09E0:  BTFSC  0B.7
09E1:  BSF    2C.7
09E2:  BCF    0B.7
....................             lcd_data(0x80); 
09E3:  MOVLW  80
09E4:  BSF    03.5
09E5:  MOVWF  2F
09E6:  BCF    0A.3
09E7:  BCF    03.5
09E8:  CALL   3EA
09E9:  BSF    0A.3
09EA:  BTFSC  2C.7
09EB:  BSF    0B.7
09EC:  CLRF   2C
09ED:  BTFSC  0B.7
09EE:  BSF    2C.7
09EF:  BCF    0B.7
....................             lcd_data(0x80); 
09F0:  MOVLW  80
09F1:  BSF    03.5
09F2:  MOVWF  2F
09F3:  BCF    0A.3
09F4:  BCF    03.5
09F5:  CALL   3EA
09F6:  BSF    0A.3
09F7:  BTFSC  2C.7
09F8:  BSF    0B.7
09F9:  CLRF   2C
09FA:  BTFSC  0B.7
09FB:  BSF    2C.7
09FC:  BCF    0B.7
....................             lcd_data(0x00); 
09FD:  BSF    03.5
09FE:  CLRF   2F
09FF:  BCF    0A.3
0A00:  BCF    03.5
0A01:  CALL   3EA
0A02:  BSF    0A.3
0A03:  BTFSC  2C.7
0A04:  BSF    0B.7
0A05:  CLRF   2C
0A06:  BTFSC  0B.7
0A07:  BSF    2C.7
0A08:  BCF    0B.7
....................             lcd_data(0x80); 
0A09:  MOVLW  80
0A0A:  BSF    03.5
0A0B:  MOVWF  2F
0A0C:  BCF    0A.3
0A0D:  BCF    03.5
0A0E:  CALL   3EA
0A0F:  BSF    0A.3
0A10:  BTFSC  2C.7
0A11:  BSF    0B.7
0A12:  CLRF   2C
0A13:  BTFSC  0B.7
0A14:  BSF    2C.7
0A15:  BCF    0B.7
....................             lcd_data(0x80); 
0A16:  MOVLW  80
0A17:  BSF    03.5
0A18:  MOVWF  2F
0A19:  BCF    0A.3
0A1A:  BCF    03.5
0A1B:  CALL   3EA
0A1C:  BSF    0A.3
0A1D:  BTFSC  2C.7
0A1E:  BSF    0B.7
....................           
....................          } 
0A1F:  GOTO   626
....................          else if (count ==  0) 
0A20:  MOVF   3A,F
0A21:  BTFSS  03.2
0A22:  GOTO   396
....................          {   
....................              
....................             temp1 = buffer[5]; 
0A23:  MOVF   4F,W
0A24:  MOVWF  41
....................             temp2 = buffer[6]; 
0A25:  MOVF   50,W
0A26:  MOVWF  42
....................             hum1 = buffer[7]; 
0A27:  MOVF   51,W
0A28:  MOVWF  44
....................             hum2 = buffer[8]; 
0A29:  MOVF   52,W
0A2A:  MOVWF  45
....................              
....................             if (temp1 == 0) { 
0A2B:  MOVF   41,F
0A2C:  BTFSS  03.2
0A2D:  GOTO   24F
0A2E:  CLRF   2C
0A2F:  BTFSC  0B.7
0A30:  BSF    2C.7
0A31:  BCF    0B.7
....................                lcd_clear(); 
0A32:  BCF    0A.3
0A33:  CALL   400
0A34:  BSF    0A.3
0A35:  BTFSC  2C.7
0A36:  BSF    0B.7
0A37:  CLRF   2C
0A38:  BTFSC  0B.7
0A39:  BSF    2C.7
0A3A:  BCF    0B.7
....................                lcd_gotoxy(10, 3); 
0A3B:  MOVLW  0A
0A3C:  BSF    03.5
0A3D:  MOVWF  2F
0A3E:  MOVLW  03
0A3F:  MOVWF  30
0A40:  BCF    0A.3
0A41:  BCF    03.5
0A42:  CALL   3D9
0A43:  BSF    0A.3
0A44:  BTFSC  2C.7
0A45:  BSF    0B.7
....................                lcd_putc("Loading..."); 
0A46:  MOVLW  68
0A47:  BSF    03.6
0A48:  MOVWF  0D
0A49:  MOVLW  04
0A4A:  MOVWF  0F
0A4B:  BCF    0A.3
0A4C:  BCF    03.6
0A4D:  CALL   519
0A4E:  BSF    0A.3
0A4F:  CLRF   2C
0A50:  BTFSC  0B.7
0A51:  BSF    2C.7
0A52:  BCF    0B.7
....................             } 
....................             lcd_gotoxy(4,1); 
0A53:  MOVLW  04
0A54:  BSF    03.5
0A55:  MOVWF  2F
0A56:  MOVLW  01
0A57:  MOVWF  30
0A58:  BCF    0A.3
0A59:  BCF    03.5
0A5A:  CALL   3D9
0A5B:  BSF    0A.3
0A5C:  BTFSC  2C.7
0A5D:  BSF    0B.7
....................             lcd_putc("Temp.: "); 
0A5E:  MOVLW  6E
0A5F:  BSF    03.6
0A60:  MOVWF  0D
0A61:  MOVLW  04
0A62:  MOVWF  0F
0A63:  BCF    0A.3
0A64:  BCF    03.6
0A65:  CALL   519
0A66:  BSF    0A.3
0A67:  CLRF   2C
0A68:  BTFSC  0B.7
0A69:  BSF    2C.7
0A6A:  BCF    0B.7
....................             lcd_gotoxy(55,1); 
0A6B:  MOVLW  37
0A6C:  BSF    03.5
0A6D:  MOVWF  2F
0A6E:  MOVLW  01
0A6F:  MOVWF  30
0A70:  BCF    0A.3
0A71:  BCF    03.5
0A72:  CALL   3D9
0A73:  BSF    0A.3
0A74:  BTFSC  2C.7
0A75:  BSF    0B.7
....................             lcd_putc(temp1); 
0A76:  MOVF   41,W
0A77:  BSF    03.5
0A78:  MOVWF  23
0A79:  BCF    0A.3
0A7A:  BCF    03.5
0A7B:  CALL   4C8
0A7C:  BSF    0A.3
....................             lcd_putc(temp2); 
0A7D:  MOVF   42,W
0A7E:  BSF    03.5
0A7F:  MOVWF  23
0A80:  BCF    0A.3
0A81:  BCF    03.5
0A82:  CALL   4C8
0A83:  BSF    0A.3
....................             lcd_putc(" "); 
0A84:  MOVLW  72
0A85:  BSF    03.6
0A86:  MOVWF  0D
0A87:  MOVLW  04
0A88:  MOVWF  0F
0A89:  BCF    0A.3
0A8A:  BCF    03.6
0A8B:  CALL   519
0A8C:  BSF    0A.3
0A8D:  CLRF   2C
0A8E:  BTFSC  0B.7
0A8F:  BSF    2C.7
0A90:  BCF    0B.7
....................             lcd_data(0x03); 
0A91:  MOVLW  03
0A92:  BSF    03.5
0A93:  MOVWF  2F
0A94:  BCF    0A.3
0A95:  BCF    03.5
0A96:  CALL   3EA
0A97:  BSF    0A.3
0A98:  BTFSC  2C.7
0A99:  BSF    0B.7
0A9A:  CLRF   2C
0A9B:  BTFSC  0B.7
0A9C:  BSF    2C.7
0A9D:  BCF    0B.7
....................             lcd_data(0x03); 
0A9E:  MOVLW  03
0A9F:  BSF    03.5
0AA0:  MOVWF  2F
0AA1:  BCF    0A.3
0AA2:  BCF    03.5
0AA3:  CALL   3EA
0AA4:  BSF    0A.3
0AA5:  BTFSC  2C.7
0AA6:  BSF    0B.7
0AA7:  CLRF   2C
0AA8:  BTFSC  0B.7
0AA9:  BSF    2C.7
0AAA:  BCF    0B.7
....................             lcd_data(0x00); 
0AAB:  BSF    03.5
0AAC:  CLRF   2F
0AAD:  BCF    0A.3
0AAE:  BCF    03.5
0AAF:  CALL   3EA
0AB0:  BSF    0A.3
0AB1:  BTFSC  2C.7
0AB2:  BSF    0B.7
....................             lcd_putc("C"); 
0AB3:  MOVLW  73
0AB4:  BSF    03.6
0AB5:  MOVWF  0D
0AB6:  MOVLW  04
0AB7:  MOVWF  0F
0AB8:  BCF    0A.3
0AB9:  BCF    03.6
0ABA:  CALL   519
0ABB:  BSF    0A.3
0ABC:  CLRF   2C
0ABD:  BTFSC  0B.7
0ABE:  BSF    2C.7
0ABF:  BCF    0B.7
....................             lcd_gotoxy(5,3); 
0AC0:  MOVLW  05
0AC1:  BSF    03.5
0AC2:  MOVWF  2F
0AC3:  MOVLW  03
0AC4:  MOVWF  30
0AC5:  BCF    0A.3
0AC6:  BCF    03.5
0AC7:  CALL   3D9
0AC8:  BSF    0A.3
0AC9:  BTFSC  2C.7
0ACA:  BSF    0B.7
....................             lcd_putc("Hum.: "); 
0ACB:  MOVLW  74
0ACC:  BSF    03.6
0ACD:  MOVWF  0D
0ACE:  MOVLW  04
0ACF:  MOVWF  0F
0AD0:  BCF    0A.3
0AD1:  BCF    03.6
0AD2:  CALL   519
0AD3:  BSF    0A.3
0AD4:  CLRF   2C
0AD5:  BTFSC  0B.7
0AD6:  BSF    2C.7
0AD7:  BCF    0B.7
....................             lcd_gotoxy(55,3); 
0AD8:  MOVLW  37
0AD9:  BSF    03.5
0ADA:  MOVWF  2F
0ADB:  MOVLW  03
0ADC:  MOVWF  30
0ADD:  BCF    0A.3
0ADE:  BCF    03.5
0ADF:  CALL   3D9
0AE0:  BSF    0A.3
0AE1:  BTFSC  2C.7
0AE2:  BSF    0B.7
....................             lcd_putc(hum1); 
0AE3:  MOVF   44,W
0AE4:  BSF    03.5
0AE5:  MOVWF  23
0AE6:  BCF    0A.3
0AE7:  BCF    03.5
0AE8:  CALL   4C8
0AE9:  BSF    0A.3
....................             lcd_putc(hum2); 
0AEA:  MOVF   45,W
0AEB:  BSF    03.5
0AEC:  MOVWF  23
0AED:  BCF    0A.3
0AEE:  BCF    03.5
0AEF:  CALL   4C8
0AF0:  BSF    0A.3
....................             lcd_putc(" %"); 
0AF1:  MOVLW  78
0AF2:  BSF    03.6
0AF3:  MOVWF  0D
0AF4:  MOVLW  04
0AF5:  MOVWF  0F
0AF6:  BCF    0A.3
0AF7:  BCF    03.6
0AF8:  CALL   519
0AF9:  BSF    0A.3
0AFA:  CLRF   2C
0AFB:  BTFSC  0B.7
0AFC:  BSF    2C.7
0AFD:  BCF    0B.7
....................             lcd_gotoxy(40,5); 
0AFE:  MOVLW  28
0AFF:  BSF    03.5
0B00:  MOVWF  2F
0B01:  MOVLW  05
0B02:  MOVWF  30
0B03:  BCF    0A.3
0B04:  BCF    03.5
0B05:  CALL   3D9
0B06:  BSF    0A.3
0B07:  BTFSC  2C.7
0B08:  BSF    0B.7
0B09:  CLRF   2C
0B0A:  BTFSC  0B.7
0B0B:  BSF    2C.7
0B0C:  BCF    0B.7
....................             lcd_data(0x60); 
0B0D:  MOVLW  60
0B0E:  BSF    03.5
0B0F:  MOVWF  2F
0B10:  BCF    0A.3
0B11:  BCF    03.5
0B12:  CALL   3EA
0B13:  BSF    0A.3
0B14:  BTFSC  2C.7
0B15:  BSF    0B.7
0B16:  CLRF   2C
0B17:  BTFSC  0B.7
0B18:  BSF    2C.7
0B19:  BCF    0B.7
....................             lcd_data(0x60); 
0B1A:  MOVLW  60
0B1B:  BSF    03.5
0B1C:  MOVWF  2F
0B1D:  BCF    0A.3
0B1E:  BCF    03.5
0B1F:  CALL   3EA
0B20:  BSF    0A.3
0B21:  BTFSC  2C.7
0B22:  BSF    0B.7
0B23:  CLRF   2C
0B24:  BTFSC  0B.7
0B25:  BSF    2C.7
0B26:  BCF    0B.7
....................             lcd_data(0x00); 
0B27:  BSF    03.5
0B28:  CLRF   2F
0B29:  BCF    0A.3
0B2A:  BCF    03.5
0B2B:  CALL   3EA
0B2C:  BSF    0A.3
0B2D:  BTFSC  2C.7
0B2E:  BSF    0B.7
0B2F:  CLRF   2C
0B30:  BTFSC  0B.7
0B31:  BSF    2C.7
0B32:  BCF    0B.7
....................             lcd_data(0x80); 
0B33:  MOVLW  80
0B34:  BSF    03.5
0B35:  MOVWF  2F
0B36:  BCF    0A.3
0B37:  BCF    03.5
0B38:  CALL   3EA
0B39:  BSF    0A.3
0B3A:  BTFSC  2C.7
0B3B:  BSF    0B.7
0B3C:  CLRF   2C
0B3D:  BTFSC  0B.7
0B3E:  BSF    2C.7
0B3F:  BCF    0B.7
....................             lcd_data(0x80); 
0B40:  MOVLW  80
0B41:  BSF    03.5
0B42:  MOVWF  2F
0B43:  BCF    0A.3
0B44:  BCF    03.5
0B45:  CALL   3EA
0B46:  BSF    0A.3
0B47:  BTFSC  2C.7
0B48:  BSF    0B.7
0B49:  CLRF   2C
0B4A:  BTFSC  0B.7
0B4B:  BSF    2C.7
0B4C:  BCF    0B.7
....................             lcd_data(0x00); 
0B4D:  BSF    03.5
0B4E:  CLRF   2F
0B4F:  BCF    0A.3
0B50:  BCF    03.5
0B51:  CALL   3EA
0B52:  BSF    0A.3
0B53:  BTFSC  2C.7
0B54:  BSF    0B.7
0B55:  CLRF   2C
0B56:  BTFSC  0B.7
0B57:  BSF    2C.7
0B58:  BCF    0B.7
....................             lcd_data(0x80); 
0B59:  MOVLW  80
0B5A:  BSF    03.5
0B5B:  MOVWF  2F
0B5C:  BCF    0A.3
0B5D:  BCF    03.5
0B5E:  CALL   3EA
0B5F:  BSF    0A.3
0B60:  BTFSC  2C.7
0B61:  BSF    0B.7
0B62:  CLRF   2C
0B63:  BTFSC  0B.7
0B64:  BSF    2C.7
0B65:  BCF    0B.7
....................             lcd_data(0x80); 
0B66:  MOVLW  80
0B67:  BSF    03.5
0B68:  MOVWF  2F
0B69:  BCF    0A.3
0B6A:  BCF    03.5
0B6B:  CALL   3EA
0B6C:  BSF    0A.3
0B6D:  BTFSC  2C.7
0B6E:  BSF    0B.7
0B6F:  CLRF   2C
0B70:  BTFSC  0B.7
0B71:  BSF    2C.7
0B72:  BCF    0B.7
....................             lcd_data(0x00); 
0B73:  BSF    03.5
0B74:  CLRF   2F
0B75:  BCF    0A.3
0B76:  BCF    03.5
0B77:  CALL   3EA
0B78:  BSF    0A.3
0B79:  BTFSC  2C.7
0B7A:  BSF    0B.7
0B7B:  CLRF   2C
0B7C:  BTFSC  0B.7
0B7D:  BSF    2C.7
0B7E:  BCF    0B.7
....................             lcd_data(0x80); 
0B7F:  MOVLW  80
0B80:  BSF    03.5
0B81:  MOVWF  2F
0B82:  BCF    0A.3
0B83:  BCF    03.5
0B84:  CALL   3EA
0B85:  BSF    0A.3
0B86:  BTFSC  2C.7
0B87:  BSF    0B.7
0B88:  CLRF   2C
0B89:  BTFSC  0B.7
0B8A:  BSF    2C.7
0B8B:  BCF    0B.7
....................             lcd_data(0x80); 
0B8C:  MOVLW  80
0B8D:  BSF    03.5
0B8E:  MOVWF  2F
0B8F:  BCF    0A.3
0B90:  BCF    03.5
0B91:  CALL   3EA
0B92:  BSF    0A.3
0B93:  BTFSC  2C.7
0B94:  BSF    0B.7
....................          } 
0B95:  GOTO   626
....................          else if (count == 2) 
0B96:  MOVF   3A,W
0B97:  SUBLW  02
0B98:  BTFSS  03.2
0B99:  GOTO   492
0B9A:  CLRF   2C
0B9B:  BTFSC  0B.7
0B9C:  BSF    2C.7
0B9D:  BCF    0B.7
....................          { 
....................             lcd_gotoxy(0,0); 
0B9E:  BSF    03.5
0B9F:  CLRF   2F
0BA0:  CLRF   30
0BA1:  BCF    0A.3
0BA2:  BCF    03.5
0BA3:  CALL   3D9
0BA4:  BSF    0A.3
0BA5:  BTFSC  2C.7
0BA6:  BSF    0B.7
....................             lcd_putc("Weather today:"); 
0BA7:  MOVLW  7A
0BA8:  BSF    03.6
0BA9:  MOVWF  0D
0BAA:  MOVLW  04
0BAB:  MOVWF  0F
0BAC:  BCF    0A.3
0BAD:  BCF    03.6
0BAE:  CALL   519
0BAF:  BSF    0A.3
0BB0:  CLRF   2C
0BB1:  BTFSC  0B.7
0BB2:  BSF    2C.7
0BB3:  BCF    0B.7
....................             lcd_gotoxy(15,2); 
0BB4:  MOVLW  0F
0BB5:  BSF    03.5
0BB6:  MOVWF  2F
0BB7:  MOVLW  02
0BB8:  MOVWF  30
0BB9:  BCF    0A.3
0BBA:  BCF    03.5
0BBB:  CALL   3D9
0BBC:  BSF    0A.3
0BBD:  BTFSC  2C.7
0BBE:  BSF    0B.7
....................             for (char i=9; i< 32;i++){ 
0BBF:  MOVLW  09
0BC0:  MOVWF  70
0BC1:  MOVF   70,W
0BC2:  SUBLW  1F
0BC3:  BTFSS  03.0
0BC4:  GOTO   3F6
....................                if (buffer[i]=='$') break; 
0BC5:  MOVLW  4A
0BC6:  ADDWF  70,W
0BC7:  MOVWF  04
0BC8:  BCF    03.7
0BC9:  MOVF   00,W
0BCA:  SUBLW  24
0BCB:  BTFSC  03.2
0BCC:  GOTO   3F6
....................                if (buffer[i]==' ') { 
0BCD:  MOVLW  4A
0BCE:  ADDWF  70,W
0BCF:  MOVWF  04
0BD0:  BCF    03.7
0BD1:  MOVF   00,W
0BD2:  SUBLW  20
0BD3:  BTFSS  03.2
0BD4:  GOTO   3E8
....................                   for (int j=(i-9); j<=14; j++){  
0BD5:  MOVLW  09
0BD6:  SUBWF  70,W
0BD7:  MOVWF  71
0BD8:  MOVF   71,W
0BD9:  SUBLW  0E
0BDA:  BTFSS  03.0
0BDB:  GOTO   3E7
....................                      lcd_putc(" "); //Xuong dong 
0BDC:  MOVLW  82
0BDD:  BSF    03.6
0BDE:  MOVWF  0D
0BDF:  MOVLW  04
0BE0:  MOVWF  0F
0BE1:  BCF    0A.3
0BE2:  BCF    03.6
0BE3:  CALL   519
0BE4:  BSF    0A.3
0BE5:  INCF   71,F
0BE6:  GOTO   3D8
....................                   } 
....................                   continue; 
0BE7:  GOTO   3F4
....................                } 
....................                lcd_putc(buffer[i]); 
0BE8:  MOVLW  4A
0BE9:  ADDWF  70,W
0BEA:  MOVWF  04
0BEB:  BCF    03.7
0BEC:  MOVF   00,W
0BED:  BSF    03.5
0BEE:  MOVWF  20
0BEF:  MOVWF  23
0BF0:  BCF    0A.3
0BF1:  BCF    03.5
0BF2:  CALL   4C8
0BF3:  BSF    0A.3
0BF4:  INCF   70,F
0BF5:  GOTO   3C1
0BF6:  CLRF   2C
0BF7:  BTFSC  0B.7
0BF8:  BSF    2C.7
0BF9:  BCF    0B.7
....................             } 
....................             lcd_gotoxy(40,5); 
0BFA:  MOVLW  28
0BFB:  BSF    03.5
0BFC:  MOVWF  2F
0BFD:  MOVLW  05
0BFE:  MOVWF  30
0BFF:  BCF    0A.3
0C00:  BCF    03.5
0C01:  CALL   3D9
0C02:  BSF    0A.3
0C03:  BTFSC  2C.7
0C04:  BSF    0B.7
0C05:  CLRF   2C
0C06:  BTFSC  0B.7
0C07:  BSF    2C.7
0C08:  BCF    0B.7
....................             lcd_data(0x80); 
0C09:  MOVLW  80
0C0A:  BSF    03.5
0C0B:  MOVWF  2F
0C0C:  BCF    0A.3
0C0D:  BCF    03.5
0C0E:  CALL   3EA
0C0F:  BSF    0A.3
0C10:  BTFSC  2C.7
0C11:  BSF    0B.7
0C12:  CLRF   2C
0C13:  BTFSC  0B.7
0C14:  BSF    2C.7
0C15:  BCF    0B.7
....................             lcd_data(0x80); 
0C16:  MOVLW  80
0C17:  BSF    03.5
0C18:  MOVWF  2F
0C19:  BCF    0A.3
0C1A:  BCF    03.5
0C1B:  CALL   3EA
0C1C:  BSF    0A.3
0C1D:  BTFSC  2C.7
0C1E:  BSF    0B.7
0C1F:  CLRF   2C
0C20:  BTFSC  0B.7
0C21:  BSF    2C.7
0C22:  BCF    0B.7
....................             lcd_data(0x00); 
0C23:  BSF    03.5
0C24:  CLRF   2F
0C25:  BCF    0A.3
0C26:  BCF    03.5
0C27:  CALL   3EA
0C28:  BSF    0A.3
0C29:  BTFSC  2C.7
0C2A:  BSF    0B.7
0C2B:  CLRF   2C
0C2C:  BTFSC  0B.7
0C2D:  BSF    2C.7
0C2E:  BCF    0B.7
....................             lcd_data(0x80); 
0C2F:  MOVLW  80
0C30:  BSF    03.5
0C31:  MOVWF  2F
0C32:  BCF    0A.3
0C33:  BCF    03.5
0C34:  CALL   3EA
0C35:  BSF    0A.3
0C36:  BTFSC  2C.7
0C37:  BSF    0B.7
0C38:  CLRF   2C
0C39:  BTFSC  0B.7
0C3A:  BSF    2C.7
0C3B:  BCF    0B.7
....................             lcd_data(0x80); 
0C3C:  MOVLW  80
0C3D:  BSF    03.5
0C3E:  MOVWF  2F
0C3F:  BCF    0A.3
0C40:  BCF    03.5
0C41:  CALL   3EA
0C42:  BSF    0A.3
0C43:  BTFSC  2C.7
0C44:  BSF    0B.7
0C45:  CLRF   2C
0C46:  BTFSC  0B.7
0C47:  BSF    2C.7
0C48:  BCF    0B.7
....................             lcd_data(0x00); 
0C49:  BSF    03.5
0C4A:  CLRF   2F
0C4B:  BCF    0A.3
0C4C:  BCF    03.5
0C4D:  CALL   3EA
0C4E:  BSF    0A.3
0C4F:  BTFSC  2C.7
0C50:  BSF    0B.7
0C51:  CLRF   2C
0C52:  BTFSC  0B.7
0C53:  BSF    2C.7
0C54:  BCF    0B.7
....................             lcd_data(0x60); 
0C55:  MOVLW  60
0C56:  BSF    03.5
0C57:  MOVWF  2F
0C58:  BCF    0A.3
0C59:  BCF    03.5
0C5A:  CALL   3EA
0C5B:  BSF    0A.3
0C5C:  BTFSC  2C.7
0C5D:  BSF    0B.7
0C5E:  CLRF   2C
0C5F:  BTFSC  0B.7
0C60:  BSF    2C.7
0C61:  BCF    0B.7
....................             lcd_data(0x60); 
0C62:  MOVLW  60
0C63:  BSF    03.5
0C64:  MOVWF  2F
0C65:  BCF    0A.3
0C66:  BCF    03.5
0C67:  CALL   3EA
0C68:  BSF    0A.3
0C69:  BTFSC  2C.7
0C6A:  BSF    0B.7
0C6B:  CLRF   2C
0C6C:  BTFSC  0B.7
0C6D:  BSF    2C.7
0C6E:  BCF    0B.7
....................             lcd_data(0x00); 
0C6F:  BSF    03.5
0C70:  CLRF   2F
0C71:  BCF    0A.3
0C72:  BCF    03.5
0C73:  CALL   3EA
0C74:  BSF    0A.3
0C75:  BTFSC  2C.7
0C76:  BSF    0B.7
0C77:  CLRF   2C
0C78:  BTFSC  0B.7
0C79:  BSF    2C.7
0C7A:  BCF    0B.7
....................             lcd_data(0x80); 
0C7B:  MOVLW  80
0C7C:  BSF    03.5
0C7D:  MOVWF  2F
0C7E:  BCF    0A.3
0C7F:  BCF    03.5
0C80:  CALL   3EA
0C81:  BSF    0A.3
0C82:  BTFSC  2C.7
0C83:  BSF    0B.7
0C84:  CLRF   2C
0C85:  BTFSC  0B.7
0C86:  BSF    2C.7
0C87:  BCF    0B.7
....................             lcd_data(0x80); 
0C88:  MOVLW  80
0C89:  BSF    03.5
0C8A:  MOVWF  2F
0C8B:  BCF    0A.3
0C8C:  BCF    03.5
0C8D:  CALL   3EA
0C8E:  BSF    0A.3
0C8F:  BTFSC  2C.7
0C90:  BSF    0B.7
....................          } 
0C91:  GOTO   626
....................          else if (count == 3) 
0C92:  MOVF   3A,W
0C93:  SUBLW  03
0C94:  BTFSS  03.2
0C95:  GOTO   626
....................          {    
....................             char x= 4, y=2; 
....................             int a, b, c, d, check; 
0C96:  MOVLW  04
0C97:  MOVWF  72
0C98:  MOVLW  02
0C99:  MOVWF  73
....................             a = 2; b = 3; c = 0; d = 3; 
0C9A:  MOVLW  02
0C9B:  MOVWF  74
0C9C:  MOVLW  03
0C9D:  MOVWF  75
0C9E:  CLRF   76
0C9F:  MOVWF  7C
0CA0:  CLRF   2C
0CA1:  BTFSC  0B.7
0CA2:  BSF    2C.7
0CA3:  BCF    0B.7
....................             lcd_gotoxy(1,0); 
0CA4:  MOVLW  01
0CA5:  BSF    03.5
0CA6:  MOVWF  2F
0CA7:  CLRF   30
0CA8:  BCF    0A.3
0CA9:  BCF    03.5
0CAA:  CALL   3D9
0CAB:  BSF    0A.3
0CAC:  BTFSC  2C.7
0CAD:  BSF    0B.7
....................             lcd_putc("Arlam at:");  
0CAE:  MOVLW  83
0CAF:  BSF    03.6
0CB0:  MOVWF  0D
0CB1:  MOVLW  04
0CB2:  MOVWF  0F
0CB3:  BCF    0A.3
0CB4:  BCF    03.6
0CB5:  CALL   519
0CB6:  BSF    0A.3
....................             lcd_print_digit(a, x1, y1); 
0CB7:  MOVF   74,W
0CB8:  BSF    03.5
0CB9:  MOVWF  22
0CBA:  BCF    03.5
0CBB:  MOVF   6E,W
0CBC:  BSF    03.5
0CBD:  MOVWF  23
0CBE:  BCF    03.5
0CBF:  MOVF   6F,W
0CC0:  BSF    03.5
0CC1:  MOVWF  24
0CC2:  BCF    0A.3
0CC3:  BCF    03.5
0CC4:  CALL   715
0CC5:  BSF    0A.3
....................             lcd_print_digit(b, x1 + 12, y1); 
0CC6:  MOVLW  0C
0CC7:  ADDWF  6E,W
0CC8:  BSF    03.5
0CC9:  MOVWF  20
0CCA:  MOVF   75,W
0CCB:  MOVWF  22
0CCC:  MOVF   20,W
0CCD:  MOVWF  23
0CCE:  BCF    03.5
0CCF:  MOVF   6F,W
0CD0:  BSF    03.5
0CD1:  MOVWF  24
0CD2:  BCF    0A.3
0CD3:  BCF    03.5
0CD4:  CALL   715
0CD5:  BSF    0A.3
....................             lcd_print_digit(11, x1 +24, y1); 
0CD6:  MOVLW  18
0CD7:  ADDWF  6E,W
0CD8:  BSF    03.5
0CD9:  MOVWF  20
0CDA:  MOVLW  0B
0CDB:  MOVWF  22
0CDC:  MOVF   20,W
0CDD:  MOVWF  23
0CDE:  BCF    03.5
0CDF:  MOVF   6F,W
0CE0:  BSF    03.5
0CE1:  MOVWF  24
0CE2:  BCF    0A.3
0CE3:  BCF    03.5
0CE4:  CALL   715
0CE5:  BSF    0A.3
....................             lcd_print_digit(c, x1 + 36,y1); 
0CE6:  MOVLW  24
0CE7:  ADDWF  6E,W
0CE8:  BSF    03.5
0CE9:  MOVWF  20
0CEA:  MOVF   76,W
0CEB:  MOVWF  22
0CEC:  MOVF   20,W
0CED:  MOVWF  23
0CEE:  BCF    03.5
0CEF:  MOVF   6F,W
0CF0:  BSF    03.5
0CF1:  MOVWF  24
0CF2:  BCF    0A.3
0CF3:  BCF    03.5
0CF4:  CALL   715
0CF5:  BSF    0A.3
....................             lcd_print_digit(d, x1 +48, y1); 
0CF6:  MOVLW  30
0CF7:  ADDWF  6E,W
0CF8:  BSF    03.5
0CF9:  MOVWF  20
0CFA:  MOVF   7C,W
0CFB:  MOVWF  22
0CFC:  MOVF   20,W
0CFD:  MOVWF  23
0CFE:  BCF    03.5
0CFF:  MOVF   6F,W
0D00:  BSF    03.5
0D01:  MOVWF  24
0D02:  BCF    0A.3
0D03:  BCF    03.5
0D04:  CALL   715
0D05:  BSF    0A.3
0D06:  CLRF   2C
0D07:  BTFSC  0B.7
0D08:  BSF    2C.7
0D09:  BCF    0B.7
....................             lcd_gotoxy(40,5); 
0D0A:  MOVLW  28
0D0B:  BSF    03.5
0D0C:  MOVWF  2F
0D0D:  MOVLW  05
0D0E:  MOVWF  30
0D0F:  BCF    0A.3
0D10:  BCF    03.5
0D11:  CALL   3D9
0D12:  BSF    0A.3
0D13:  BTFSC  2C.7
0D14:  BSF    0B.7
0D15:  CLRF   2C
0D16:  BTFSC  0B.7
0D17:  BSF    2C.7
0D18:  BCF    0B.7
....................             lcd_data(0x80); 
0D19:  MOVLW  80
0D1A:  BSF    03.5
0D1B:  MOVWF  2F
0D1C:  BCF    0A.3
0D1D:  BCF    03.5
0D1E:  CALL   3EA
0D1F:  BSF    0A.3
0D20:  BTFSC  2C.7
0D21:  BSF    0B.7
0D22:  CLRF   2C
0D23:  BTFSC  0B.7
0D24:  BSF    2C.7
0D25:  BCF    0B.7
....................             lcd_data(0x80); 
0D26:  MOVLW  80
0D27:  BSF    03.5
0D28:  MOVWF  2F
0D29:  BCF    0A.3
0D2A:  BCF    03.5
0D2B:  CALL   3EA
0D2C:  BSF    0A.3
0D2D:  BTFSC  2C.7
0D2E:  BSF    0B.7
0D2F:  CLRF   2C
0D30:  BTFSC  0B.7
0D31:  BSF    2C.7
0D32:  BCF    0B.7
....................             lcd_data(0x00); 
0D33:  BSF    03.5
0D34:  CLRF   2F
0D35:  BCF    0A.3
0D36:  BCF    03.5
0D37:  CALL   3EA
0D38:  BSF    0A.3
0D39:  BTFSC  2C.7
0D3A:  BSF    0B.7
0D3B:  CLRF   2C
0D3C:  BTFSC  0B.7
0D3D:  BSF    2C.7
0D3E:  BCF    0B.7
....................             lcd_data(0x80); 
0D3F:  MOVLW  80
0D40:  BSF    03.5
0D41:  MOVWF  2F
0D42:  BCF    0A.3
0D43:  BCF    03.5
0D44:  CALL   3EA
0D45:  BSF    0A.3
0D46:  BTFSC  2C.7
0D47:  BSF    0B.7
0D48:  CLRF   2C
0D49:  BTFSC  0B.7
0D4A:  BSF    2C.7
0D4B:  BCF    0B.7
....................             lcd_data(0x80); 
0D4C:  MOVLW  80
0D4D:  BSF    03.5
0D4E:  MOVWF  2F
0D4F:  BCF    0A.3
0D50:  BCF    03.5
0D51:  CALL   3EA
0D52:  BSF    0A.3
0D53:  BTFSC  2C.7
0D54:  BSF    0B.7
0D55:  CLRF   2C
0D56:  BTFSC  0B.7
0D57:  BSF    2C.7
0D58:  BCF    0B.7
....................             lcd_data(0x00); 
0D59:  BSF    03.5
0D5A:  CLRF   2F
0D5B:  BCF    0A.3
0D5C:  BCF    03.5
0D5D:  CALL   3EA
0D5E:  BSF    0A.3
0D5F:  BTFSC  2C.7
0D60:  BSF    0B.7
0D61:  CLRF   2C
0D62:  BTFSC  0B.7
0D63:  BSF    2C.7
0D64:  BCF    0B.7
....................             lcd_data(0x80); 
0D65:  MOVLW  80
0D66:  BSF    03.5
0D67:  MOVWF  2F
0D68:  BCF    0A.3
0D69:  BCF    03.5
0D6A:  CALL   3EA
0D6B:  BSF    0A.3
0D6C:  BTFSC  2C.7
0D6D:  BSF    0B.7
0D6E:  CLRF   2C
0D6F:  BTFSC  0B.7
0D70:  BSF    2C.7
0D71:  BCF    0B.7
....................             lcd_data(0x80); 
0D72:  MOVLW  80
0D73:  BSF    03.5
0D74:  MOVWF  2F
0D75:  BCF    0A.3
0D76:  BCF    03.5
0D77:  CALL   3EA
0D78:  BSF    0A.3
0D79:  BTFSC  2C.7
0D7A:  BSF    0B.7
0D7B:  CLRF   2C
0D7C:  BTFSC  0B.7
0D7D:  BSF    2C.7
0D7E:  BCF    0B.7
....................             lcd_data(0x00); 
0D7F:  BSF    03.5
0D80:  CLRF   2F
0D81:  BCF    0A.3
0D82:  BCF    03.5
0D83:  CALL   3EA
0D84:  BSF    0A.3
0D85:  BTFSC  2C.7
0D86:  BSF    0B.7
0D87:  CLRF   2C
0D88:  BTFSC  0B.7
0D89:  BSF    2C.7
0D8A:  BCF    0B.7
....................             lcd_data(0x60); 
0D8B:  MOVLW  60
0D8C:  BSF    03.5
0D8D:  MOVWF  2F
0D8E:  BCF    0A.3
0D8F:  BCF    03.5
0D90:  CALL   3EA
0D91:  BSF    0A.3
0D92:  BTFSC  2C.7
0D93:  BSF    0B.7
0D94:  CLRF   2C
0D95:  BTFSC  0B.7
0D96:  BSF    2C.7
0D97:  BCF    0B.7
....................             lcd_data(0x60); 
0D98:  MOVLW  60
0D99:  BSF    03.5
0D9A:  MOVWF  2F
0D9B:  BCF    0A.3
0D9C:  BCF    03.5
0D9D:  CALL   3EA
0D9E:  BSF    0A.3
0D9F:  BTFSC  2C.7
0DA0:  BSF    0B.7
....................             a = 1; b = 2; c = 1; d = 4; check = pin_D6; 
0DA1:  MOVLW  01
0DA2:  MOVWF  74
0DA3:  MOVLW  02
0DA4:  MOVWF  75
0DA5:  MOVLW  01
0DA6:  MOVWF  76
0DA7:  MOVLW  04
0DA8:  MOVWF  7C
0DA9:  MOVLW  46
0DAA:  MOVWF  7D
....................             if(check!=PIN_D6) output_high(PIN_A4); 
0DAB:  MOVF   7D,W
0DAC:  SUBLW  46
0DAD:  BTFSC  03.2
0DAE:  GOTO   5B3
0DAF:  BSF    03.5
0DB0:  BCF    05.4
0DB1:  BCF    03.5
0DB2:  BSF    05.4
0DB3:  CLRF   2C
0DB4:  BTFSC  0B.7
0DB5:  BSF    2C.7
0DB6:  BCF    0B.7
....................             lcd_gotoxy(1,0); 
0DB7:  MOVLW  01
0DB8:  BSF    03.5
0DB9:  MOVWF  2F
0DBA:  CLRF   30
0DBB:  BCF    0A.3
0DBC:  BCF    03.5
0DBD:  CALL   3D9
0DBE:  BSF    0A.3
0DBF:  BTFSC  2C.7
0DC0:  BSF    0B.7
....................             lcd_putc("Arlam at:");  
0DC1:  MOVLW  88
0DC2:  BSF    03.6
0DC3:  MOVWF  0D
0DC4:  MOVLW  04
0DC5:  MOVWF  0F
0DC6:  BCF    0A.3
0DC7:  BCF    03.6
0DC8:  CALL   519
0DC9:  BSF    0A.3
....................             lcd_print_digit(a, x, y); 
0DCA:  MOVF   74,W
0DCB:  BSF    03.5
0DCC:  MOVWF  22
0DCD:  MOVF   72,W
0DCE:  MOVWF  23
0DCF:  MOVF   73,W
0DD0:  MOVWF  24
0DD1:  BCF    0A.3
0DD2:  BCF    03.5
0DD3:  CALL   715
0DD4:  BSF    0A.3
....................             lcd_print_digit(b, x + 12, y); 
0DD5:  MOVLW  0C
0DD6:  ADDWF  72,W
0DD7:  BSF    03.5
0DD8:  MOVWF  20
0DD9:  MOVF   75,W
0DDA:  MOVWF  22
0DDB:  MOVF   20,W
0DDC:  MOVWF  23
0DDD:  MOVF   73,W
0DDE:  MOVWF  24
0DDF:  BCF    0A.3
0DE0:  BCF    03.5
0DE1:  CALL   715
0DE2:  BSF    0A.3
....................             lcd_print_digit(11, x +24, y); 
0DE3:  MOVLW  18
0DE4:  ADDWF  72,W
0DE5:  BSF    03.5
0DE6:  MOVWF  20
0DE7:  MOVLW  0B
0DE8:  MOVWF  22
0DE9:  MOVF   20,W
0DEA:  MOVWF  23
0DEB:  MOVF   73,W
0DEC:  MOVWF  24
0DED:  BCF    0A.3
0DEE:  BCF    03.5
0DEF:  CALL   715
0DF0:  BSF    0A.3
....................             lcd_print_digit(c, x + 36,y); 
0DF1:  MOVLW  24
0DF2:  ADDWF  72,W
0DF3:  BSF    03.5
0DF4:  MOVWF  20
0DF5:  MOVF   76,W
0DF6:  MOVWF  22
0DF7:  MOVF   20,W
0DF8:  MOVWF  23
0DF9:  MOVF   73,W
0DFA:  MOVWF  24
0DFB:  BCF    0A.3
0DFC:  BCF    03.5
0DFD:  CALL   715
0DFE:  BSF    0A.3
....................             lcd_print_digit(d, x +48, y); 
0DFF:  MOVLW  30
0E00:  ADDWF  72,W
0E01:  BSF    03.5
0E02:  MOVWF  20
0E03:  MOVF   7C,W
0E04:  MOVWF  22
0E05:  MOVF   20,W
0E06:  MOVWF  23
0E07:  MOVF   73,W
0E08:  MOVWF  24
0E09:  BCF    0A.3
0E0A:  BCF    03.5
0E0B:  CALL   715
0E0C:  BSF    0A.3
....................             if(((hr1-0x30==a) && (hr2 - 0x30 == b)) && ((min1 - 0x30 == c) && (min2-0x30 ==d))){ 
0E0D:  MOVLW  30
0E0E:  SUBWF  3B,W
0E0F:  SUBWF  74,W
0E10:  BTFSS  03.2
0E11:  GOTO   624
0E12:  MOVLW  30
0E13:  SUBWF  3C,W
0E14:  SUBWF  75,W
0E15:  BTFSS  03.2
0E16:  GOTO   624
0E17:  MOVLW  30
0E18:  SUBWF  3D,W
0E19:  SUBWF  76,W
0E1A:  BTFSS  03.2
0E1B:  GOTO   624
0E1C:  MOVLW  30
0E1D:  SUBWF  3E,W
0E1E:  SUBWF  7C,W
0E1F:  BTFSS  03.2
0E20:  GOTO   624
....................                buzz(); 
0E21:  BCF    0A.3
0E22:  CALL   6E8
0E23:  BSF    0A.3
....................             } 
....................             cnt = count; 
0E24:  MOVF   3A,W
0E25:  MOVWF  47
....................          } 
....................        delay_ms(100); 
0E26:  MOVLW  64
0E27:  BSF    03.5
0E28:  MOVWF  21
0E29:  BCF    0A.3
0E2A:  BCF    03.5
0E2B:  CALL   48D
0E2C:  BSF    0A.3
0E2D:  GOTO   05C
....................       }  
.................... }  
0E2E:  SLEEP

Configuration Fuses:
   Word  1: 2CE2   HS NOWDT PUT MCLR NOPROTECT NOCPD NOBROWNOUT IESO FCMEN NOLVP NODEBUG
   Word  2: 0700   BORV40 NOWRT
